(lp0
F0.5
aF0.986172302848372
aF0.5
aF0.9315379151191443
aF0.5
aF0.9280401978376638
aF0.5
aF0.9847940277311071
aF0.5
aF0.9980536247799793
aF0.5
aF0.5434434454992314
aF0.5
aI1
aF0.9567158592155331
aF0.8190920665522834
aF0.9864414930436889
aF0.5
aF0.5
aF0.5954254709608744
aF0.5
aF0.11769684211834708
aF0.5608596707502516
aF0.5
aF0.5
aF0.5
aI0
aF0.5940623536711531
aF0.5
aF0.6437925442222492
aF0.5
aF0.5
aF0.9124479541901982
aF0.3888377258720144
aF0.9983974444715192
aF0.5
aF0.5
aF0.5
aF0.6138355681997552
aF0.5
aI1
aF0.5
aF0.9997267640488334
aF0.5
aF0.9335434036303301
aF0.23563436981045394
aF0.9054140977487939
aF0.5
aF0.44883767291882315
aF0.5
aF0.9435324253476687
aF0.5
aF0.9991388917694051
aI0
aF0.5
aF0.9112991289213275
aF0.5
aF0.5513127866110049
aF0.6049058940013796
aF0.5
aF0.5
aF0.5
aF0.5
aF0.8306152103549402
aF0.9999999865008565
aF0.5
aF0.14968164152264052
aI1
aF0.3358595527699001
aF0.5
aF0.8727865010484801
aF0.5
aF0.5
aF0.5
aF0.5
aF0.5
aF0.15288201447206226
aF0.5
aF0.5
aF0.5
aI0
aF0.8979138516502511
aF0.5
aF0.7006490548862374
aF0.5
aF0.5
aF0.9999459103353006
aF0.9179243719509265
aF0.9883123636451738
aF0.5
aF0.5
aF0.5
aF0.9991586181067096
aF0.5
aI1
aF0.5
aF0.9374881730365597
aF0.5
aF0.6317436862008783
aF0.8799362039260661
aF0.3217361947439119
aF0.5
aF0.6695854957779035
aF0.5
aF0.998785651923028
aF0.5
aF0.9889921031290051
aI0
aF0.5
aF0.5
aF0.6673972959301422
aF0.5
aF0.5
aF0.5
aF0.9169993903190911
aF0.5
aF0.9315725179414999
aF0.5
aF0.5
aF0.5
aF0.5
aI1
aF0.5
aF0.5
aF0.5
aF0.9999835552967311
aF0.9183300038159206
aF0.5
aF0.9138507817232001
aF0.5
aF0.5
aF0.9984823590817893
aF0.9154295001651767
aF0.999925493822299
aI0
aF0.8646406759150257
aF0.29260606489972185
aF0.5
aF0.9084197790321695
aF0.5
aF0.576522283291786
aF0.5
aF0.9218684777918822
aF0.5
aF0.9243461090543783
aF0.5
aF0.9850517262593697
aF0.5
aI1
aF0.12364932774653725
aF0.957796465930438
aF0.9594982277277893
aF0.5
aF0.5
aF0.2189461032702436
aF0.5
aF0.9432376283780894
aF0.18538525261409464
aF0.5
aF0.5
aF0.5
aI0
aF0.5
aF0.9140862733944114
aF0.5
aF0.44143554262670665
aF0.3937984401962049
aF0.5
aF0.5
aF0.5
aF0.5
aF0.18773830029185223
aF0.8718042302987068
aF0.5
aF0.2502706640710884
aI1
aF0.004473023523055151
aF0.5
aF0.04591520122537224
aF0.5
aF0.5
aF0.5
aF0.5
aF0.5
aF0.5080772959621234
aF0.5
aF0.5
aF0.5
aI0
aF0.15933036759217267
aF0.8705320534283766
aF0.5
aF0.8814512313642895
aF0.5
aF0.08793887701828668
aF0.5
aF0.9021937288473818
aF0.5
aF0.7700565539604675
aF0.5
aF0.16415049995165548
aF0.5
aI1
aF0.0005367158932131529
aF0.1654530530010525
aF0.9009462709486583
aF0.5
aF0.5
aF0.924010949707006
aF0.5
aF0.016311769378035218
aF0.08368642454038133
aF0.5
aF0.5
aF0.5
aI0
aF0.5
aF0.5
aF0.5
aF0.5
aF0.5630366794943202
aF0.5
aF0.5
aF0.5
aF0.5
aF0.5
aF0.6620533871862084
aF0.5
aF0.903254887303036
aI1
aF0.5
aF0.5
aF0.5
aF0.5
aF0.5
aF0.5
aF0.5
aF0.5
aF0.5
aF0.5
aF0.5
aF0.5
aI0
aF0.9334077591433391
aF0.5
aF0.17356939154248985
aF0.5
aF0.5
aF0.9902011994432602
aF0.2838278176415897
aF0.9921791688827479
aF0.5
aF0.5
aF0.5
aF0.09891027422448177
aF0.5
aI1
aF0.5
aF0.9110431052265177
aF0.5
aF0.9854183948447814
aF0.5932979290337874
aF0.7720637142671827
aF0.5
aF0.06523296473876508
aF0.5
aF0.8614388995772695
aF0.5
aF0.9094260941009673
aI0
aF0.5
aF0.5
aF0.9134383939065949
aF0.5
aF0.5
aF0.5
aF0.33062342183084115
aF0.5
aF0.9015144193108766
aF0.5
aF0.5
aF0.5
aF0.5
aI1
aF0.5
aF0.5
aF0.5
aF0.1371947222382647
aF0.8382433044125531
aF0.5
aF0.9067630287268399
aF0.5
aF0.5
aF0.050633857898554575
aF0.899302959625836
aF0.9917923739524046
aI0
aF0.7853065587381325
aF0.9518362221352539
aF0.5
aF0.10728421975216842
aF0.5
aF0.5688063483468193
aF0.5
aF0.954343445279833
aF0.5
aF0.8450221484585629
aF0.5
aF0.9761540667074071
aF0.5
aI1
aF0.09066560594388584
aF0.47356295951530736
aF0.94999872195409
aF0.5
aF0.5
aF0.9330164626330896
aF0.5
aF0.6044212848593071
aF0.9418684600556316
aF0.5
aF0.5
aF0.5
aI0
aF0.5
aF0.5
aF0.9997408243353693
aF0.5
aF0.5
aF0.5
aF0.9616502165307148
aF0.5
aF0.10087545460558145
aF0.5
aF0.5
aF0.5
aF0.5
aI1
aF0.5
aF0.5
aF0.5
aF0.9999991980999985
aF0.19975191021047822
aF0.5
aF0.8030511694587614
aF0.5
aF0.5
aF0.9999624939306799
aF0.16389248659594266
aF0.926235782589885
aI0
aI1
aI1
aI1
aI1
aI1
aI1
aI1
aI1
aI1
aI1
aI1
aI1
aI1
aF0.5
aI1
aI1
aI1
aI1
aI1
aI1
aI1
aI1
aI1
aI1
aI1
aI1
aI1
aF0.17084369052320292
aF0.5
aF0.10472603087156962
aF0.5
aF0.5
aF0.5807874585231918
aF0.8258938139038101
aF0.9509047326656508
aF0.5
aF0.5
aF0.5
aF0.8348562913024509
aF0.5
aI1
aF0.5
aF0.1484292472918025
aF0.5
aF0.9091989999910712
aF0.29730794238508473
aF0.5086693724038523
aF0.5
aF0.9447930427878861
aF0.5
aF0.9491917029566366
aF0.5
aF0.5949063103604805
aI0
aF0.6767806338283746
aF0.8875659300156914
aF0.5
aF0.09992390638282087
aF0.5
aF0.0920115765372218
aF0.5
aF0.8633423267453592
aF0.5
aF0.1149848933982889
aF0.5
aF0.09860354575815965
aF0.5
aI1
aF0.0976481708644969
aF0.02246951255757735
aF0.37717929358359636
aF0.5
aF0.5
aF0.2141220329062155
aF0.5
aF0.1364788185572376
aF0.8648283353899305
aF0.5
aF0.5
aF0.5
aI0
aF0.7441656125023737
aF0.5
aF0.8930917211943725
aF0.5
aF0.5
aF0.9912009113602607
aF0.12955458636348666
aF0.09437222966962833
aF0.5
aF0.5
aF0.5
aF0.18172494873253187
aF0.5
aI1
aF0.5
aF0.07871809735958818
aF0.5
aF0.009181712683703158
aF0.8157723544187897
aF0.9018829349649276
aF0.5
aF0.08621196674175419
aF0.5
aF0.045856350805369636
aF0.5
aF0.909010807291801
aI0
aF0.5
aF0.645456779758993
aF0.5
aF0.24745729100960612
aF0.5866853348306841
aF0.5
aF0.5
aF0.5
aF0.5
aF0.2565257586872156
aF0.6261436273624663
aF0.5
aF0.9903414520942081
aI1
aF0.09018819926126043
aF0.5
aF0.9585505002024002
aF0.5
aF0.5
aF0.5
aF0.5
aF0.5
aF0.49947296044904643
aF0.5
aF0.5
aF0.5
aI0
aF0.5
aF0.9216639014000532
aF0.5
aF0.6670801923513954
aF0.6375172259762509
aF0.5
aF0.5
aF0.5
aF0.5
aF0.998612274287111
aF0.9988019281592616
aF0.5
aF0.9996200731125681
aI1
aF0.7986257509055543
aF0.5
aF0.8567717197267023
aF0.5
aF0.5
aF0.5
aF0.5
aF0.5
aF0.6884308120996278
aF0.5
aF0.5
aF0.5
aI0
aF0.6110214289812927
aF0.9983091315325037
aF0.5
aF0.911502325102638
aF0.5
aF0.290989067674133
aF0.5
aF0.9481371549565587
aF0.5
aF0.6000148855668713
aF0.5
aF0.6223152166018713
aF0.5
aI1
aF0.581805640851563
aF0.9999009342374483
aF0.9890872878701739
aF0.5
aF0.5
aF0.9652251263584697
aF0.5
aF0.015994055933273563
aF0.10618483814299473
aF0.5
aF0.5
aF0.5
aI0
aF0.5
aF0.5
aF0.5
aF0.5
aF0.9189789336313285
aF0.5
aF0.5
aF0.5
aF0.5
aF0.5
aF0.5508415869033256
aF0.5
aF0.08353762078406433
aI1
aF0.5
aF0.5
aF0.5
aF0.5
aF0.5
aF0.5
aF0.5
aF0.5
aF0.5
aF0.5
aF0.5
aF0.5
aI0
aF0.9028406479541796
aF0.9221787536416344
aF0.5
aF0.8956710733395461
aF0.5
aF0.9665578064486642
aF0.5
aF0.638237016680228
aF0.5
aF0.991406944605278
aF0.5
aF0.9999938067018009
aF0.5
aI1
aF0.9999999914045512
aF0.9664650654578695
aF0.9999591268030653
aF0.5
aF0.5
aF0.9029799915825578
aF0.5
aF0.8852863279935499
aF0.9836048531588297
aF0.5
aF0.5
aF0.5
aI0
aF0.8238297925437563
aF0.5
aF0.6341627741013511
aF0.5
aF0.5
aF0.26639246665980454
aF0.9233435000285078
aF0.5985992207187264
aF0.5
aF0.5
aF0.5
aF0.9578236181213868
aF0.5
aI1
aF0.5
aF0.9991896879019581
aF0.5
aF0.9999987035934335
aF0.12846831191153807
aF0.08351637261839584
aF0.5
aF0.9940394079814538
aF0.5
aF0.9544600385793407
aF0.5
aF0.9999999835232988
aI0
aF0.5
aF0.9631207258570621
aF0.5
aF0.9804111336123013
aF0.5545800648950097
aF0.5
aF0.5
aF0.5
aF0.5
aF0.9670115779868018
aF0.9999999999112492
aF0.5
aF0.999901517594632
aI1
aF0.9918820009809903
aF0.5
aF1.0
aF0.5
aF0.5
aF0.5
aF0.5
aF0.5
aF0.18901989099992622
aF0.5
aF0.5
aF0.5
aI0
aF0.5
aF0.5
aF0.5
aF0.5
aF0.1475683570660944
aF0.5
aF0.5
aF0.5
aF0.5
aF0.5
aF0.8872022349476714
aF0.5
aF0.17228996174087277
aI1
aF0.5
aF0.5
aF0.5
aF0.5
aF0.5
aF0.5
aF0.5
aF0.5
aF0.5
aF0.5
aF0.5
aF0.5
aI0
aF0.5
aF0.9899901175906825
aF0.5
aF0.9627217344398142
aF0.9999990845953175
aF0.5
aF0.5
aF0.5
aF0.5
aF0.6217182261816858
aF0.9917626934707805
aF0.5
aF0.5899250716561272
aI1
aF0.0904466841305
aF0.5
aF0.9500036486620596
aF0.5
aF0.5
aF0.5
aF0.5
aF0.5
aF0.018909918090910777
aF0.5
aF0.5
aF0.5
aI0
aI0
aI0
aI0
aI0
aI0
aI0
aI0
aI0
aI0
aI0
aI0
aI0
aI0
aI1
aI0
aI0
aI0
aI0
aI0
aI0
aI0
aI0
aI0
aI0
aI0
aI0
aF0.5
aF0.9300936646924645
aF0.5
aF0.7968478235636534
aF0.5
aF0.5
aF0.9888329970058289
aF0.6877118666789312
aF0.9956455225322635
aF0.5
aF0.5
aF0.5
aF0.11921026031237839
aF0.5
aI1
aF0.5
aF0.9530478699752531
aF0.5
aF0.26650860091300177
aF0.19588301453399168
aF0.9208878377379752
aF0.5
aF0.6077083044517906
aF0.5
aF0.34168981608397164
aF0.5
aF0.963766668120013
aI0
aF0.5
aI1
aF0.8232544050798835
aF0.5
aI1
aF0.5
aF0.9993325771125507
aI1
aF0.02345899683166841
aF0.5
aI1
aF0.5
aF0.5
aF0.5
aF0.5
aF0.5
aI1
aF0.9999999917023065
aF0.18873930101121672
aI1
aF0.04589263106786856
aF0.5
aI1
aF0.464551199848484
aF0.9660520098940206
aI1
aI0
aF0.7701802668711009
aF0.9036256448846878
aF0.5
aF0.8686817285773671
aF0.5
aF0.5185472972120411
aF0.5
aF0.6232835014785447
aF0.5
aF0.8275681073039514
aF0.5
aF0.9462996827740267
aF0.5
aI1
aF0.9490048770093504
aF0.8631237859050012
aF0.4602038536179853
aF0.5
aF0.5
aF0.8530953308874065
aF0.5
aF0.47795713736398837
aF0.12229319006936185
aF0.5
aF0.5
aF0.5
aI0
aF0.5
aF0.5
aF0.969368736330594
aF0.5
aF0.5
aF0.5
aF0.9926553083609754
aF0.5
aF0.2593725264280996
aI1
aI1
aI1
aI1
aF0.5
aI1
aI1
aI1
aI1
aF0.9377676811282674
aF0.5
aF0.5083267922024862
aF0.5
aF0.5
aF0.9914820887282101
aF0.5061498953637633
aF0.9995633959405801
aI0
aF0.5
aI1
aF0.5
aF0.5
aI1
aF0.5
aF0.5
aI1
aF0.9266064710287085
aI1
aF0.5
aI1
aI1
aF0.5
aI1
aI1
aF0.5
aI1
aF0.5
aI1
aF0.05002688961482221
aF0.5
aI1
aF0.5
aF0.8392863199767959
aI1
aI0
aF0.9355710351804887
aF0.5
aF0.9659864841187478
aF0.5
aF0.5
aF0.9991620916093646
aF0.9963582480504882
aF0.6354850377112297
aF0.5
aI1
aI1
aI1
aI1
aF0.5
aI1
aI1
aI1
aI1
aF0.9516091876600081
aF0.5439755409526588
aF0.5
aF0.8697887469745011
aF0.5
aF0.9905499953645811
aF0.5
aF0.5949833805587283
aI0
aF0.08167377957186518
aF0.999745972976387
aF0.5
aF0.76747845033944
aF0.5
aF0.4180509886389478
aF0.5
aF0.3244982715007846
aF0.5
aF0.07973296367799626
aF0.5
aF0.10473816056693325
aF0.5
aI1
aF0.12728301780109585
aF0.017614009253507826
aF0.04214823987868114
aF0.5
aF0.5
aF0.5959567259079337
aF0.5
aF0.6240062515388046
aF0.5478631637042
aF0.5
aF0.5
aF0.5
aI0
aF0.08955838207126943
aI1
aF0.0049354009329345035
aF0.5
aI1
aF0.004279776062274587
aF0.16958940718635285
aI1
aF0.5
aF0.5
aI1
aF0.0009463015158526576
aF0.5
aF0.5
aF0.5
aF0.08109080045276491
aI1
aF0.08190835451319944
aF0.8656060517653238
aI1
aF0.5
aF0.903338266364436
aI1
aF0.4513728731845465
aF0.5
aI1
aI0
aF0.5
aF0.16754250303449214
aF0.5
aF0.8467135136856374
aF0.5351177465864653
aF0.5
aF0.5
aF0.5
aF0.5
aF0.8198266187558788
aF0.046235751001084846
aF0.5
aF0.008128528673185753
aI1
aF0.0909250478118272
aF0.5
aF4.095004189410894e-05
aF0.5
aF0.5
aF0.5
aF0.5
aF0.5
aF0.4950953639635504
aF0.5
aF0.5
aF0.5
aI0
aF0.5
aF0.5
aF0.7932515794953893
aF0.5
aF0.5
aF0.5
aF0.6602663928505509
aF0.5
aF0.9260204816906792
aF0.5
aF0.5
aF0.5
aF0.5
aI1
aF0.5
aF0.5
aF0.5
aF0.9181283602102314
aF0.17955178082322443
aF0.5
aF0.8251430202411977
aF0.5
aF0.5
aF0.9504678598067069
aF0.14026252575931453
aF0.9597411179259618
aI0
aF0.5
aI1
aF0.5
aF0.5
aI1
aF0.5
aF0.5
aI1
aF0.0009496680512275976
aF0.5
aI1
aF0.5
aF0.5
aF0.5
aF0.5
aF0.5
aI1
aF0.5
aF0.5
aI1
aF0.03694059716748196
aF0.5
aI1
aF0.5
aF0.9883172179662109
aI1
aI0
aF0.8131644270587977
aF0.5
aF0.5824374672021274
aF0.5
aF0.5
aF0.6225314396768573
aF0.6390987455043123
aF0.5990486995441137
aF0.5
aF0.5
aF0.5
aF0.1443877106805661
aF0.5
aI1
aF0.5
aF0.9500552777611226
aF0.5
aF0.9995860040941491
aF0.5315478892954297
aF0.5004537546692174
aF0.5
aF0.5823002238979397
aF0.5
aF0.5900409956137518
aF0.5
aF0.9554498658099101
aI0
aF0.5
aF0.5
aF0.5
aF0.5
aF0.5
aF0.5
aF0.5
aF0.5
aF0.019705315829289693
aI1
aI1
aI1
aI1
aF0.5
aI1
aI1
aI1
aI1
aF0.5
aF0.5
aF0.8389586962582212
aF0.5
aF0.5
aF0.5
aF0.054577992535852216
aF0.5
aI0
aI1
aF0.5
aI1
aI1
aF0.5
aI1
aI1
aF0.5
aI1
aF0.5
aF0.5
aF0.5
aF0.5
aF0.5
aF0.5
aF0.5
aF0.5
aF0.5
aI1
aF0.5
aI1
aI1
aF0.5
aI1
aI1
aF0.5
aI1
aF0.5
aF0.5
aF0.5939986087917353
aF0.5
aF0.5
aF0.5
aF0.9999986182613121
aF0.5
aF0.10886449560004763
aI1
aI1
aI1
aI1
aF0.5
aI1
aI1
aI1
aI1
aF0.5296416426507464
aF0.5
aF0.49913681863559967
aF0.5
aF0.5
aF0.5495000495450495
aF0.4955807668526953
aF0.5049995499504549
aI0
aF0.19744791209359397
aF0.5
aF0.04866147900534404
aF0.5
aF0.5
aF0.058469668437025356
aF0.09451079310282998
aF0.2617711004995593
aF0.5
aF0.5
aF0.5
aF0.0880952680447693
aF0.5
aI1
aF0.5
aF0.9901712912257618
aF0.5
aF0.09549405999094451
aF0.5309379422276244
aF0.5536245870977371
aF0.5
aF0.5380219314949968
aF0.5
aF0.9005805549029003
aF0.5
aF0.18990108711334064
aI0
aF0.5
aI1
aF0.005269098974739851
aF0.5
aI1
aF0.5
aF0.18711025032259226
aI1
aF0.0
aF0.5
aI1
aF0.5
aF0.5
aF0.5
aF0.5
aF0.5
aI1
aF0.0
aF0.41897281390426144
aI1
aF0.041035103108518045
aF0.5
aI1
aF0.45045049549995003
aF0.9900902699845323
aI1
aI0
aF0.8292515731156496
aF0.6203038919261561
aF0.5
aF0.9793214634147961
aF0.5
aF0.9083691983619903
aF0.5
aF0.8686787690550335
aF0.5
aF0.8164619475751606
aF0.5
aF0.04936861508186363
aF0.5
aI1
aF0.09900909909909894
aF0.9005500003194538
aF4.5499954995004454e-10
aF0.5
aF0.5
aF0.5499504861381148
aF0.5
aF0.5815675940947439
aF0.5
aF0.5
aF0.5
aF0.5
aI0
aF0.9542533790059533
aF0.9831445725913297
aF0.5
aF0.8924801662351618
aF0.5
aF0.14158865234319107
aF0.5
aF0.9513454674052019
aF0.5
aF0.9992907782868722
aF0.5
aF0.9598236854329052
aF0.5
aI1
aF0.09683090803558186
aF0.9225030391201474
aF0.9138922991106135
aF0.5
aF0.5
aF0.8989704032389293
aF0.5
aF0.8551689602496695
aF0.7541232288186329
aF0.5
aF0.5
aF0.5
aI0
aF0.5840548441319635
aI1
aF0.24798657343214603
aF0.5
aI1
aF0.5410286434456711
aF0.9041703983300511
aI1
aF0.5
aF0.5
aI1
aF0.9999910458086646
aF0.5
aF0.5
aF0.5
aF0.9999999999991891
aI1
aF1.0
aF0.7603346158515373
aI1
aF0.5
aF0.5318900336932468
aI1
aF0.5441497655018679
aF0.5
aI1
aI0
aF0.5
aF0.8950414501066805
aF0.5
aF0.8996816825455849
aF0.08910278197293994
aF0.5
aF0.5
aF0.5
aF0.5
aF0.8388163117803495
aF0.9908378345461526
aF0.5
aF0.08218092298159108
aI1
aF0.046076089193300196
aF0.5
aF0.5094545041710005
aF0.5
aF0.5
aF0.5
aF0.5
aF0.5
aF0.8271017992637436
aF0.5
aF0.5
aF0.5
aI0
aF0.8863474571945286
aF0.5
aF0.9540055284934706
aF0.5
aF0.5
aF0.9590496969798028
aF0.9930451225615078
aF0.9999849555896935
aF0.5
aI1
aI1
aI1
aI1
aF0.5
aI1
aI1
aI1
aI1
aF0.8881466619014246
aF0.9875845652304467
aF0.5
aF0.913144053450486
aF0.5
aF0.9545008999023816
aF0.5
aF0.9995409505315355
aI0
aF0.5
aI1
aF0.618900627886974
aF0.5
aI1
aF0.5
aF0.9999999809838023
aI1
aF0.9821449177930998
aI1
aF0.5
aI1
aI1
aF0.5
aI1
aI1
aF0.5
aI1
aF0.008351202446909262
aI1
aF8.968415441359166e-08
aF0.5
aI1
aF0.4999545499950495
aF0.09090904546044509
aI1
aI0
aF0.29269746981590994
aF0.8849244793525518
aF0.5
aF0.9937313835854298
aF0.5
aF0.9999991400946395
aF0.5
aF0.999590868999991
aF0.5
aI1
aI1
aI1
aI1
aF0.5
aI1
aI1
aI1
aI1
aF0.5
aF0.9508626098122925
aF0.5
aF0.9501349722233154
aF0.9099009990909099
aF0.5
aF0.5
aF0.5
aI0
aF0.5
aF0.9818711855494502
aF0.5
aF0.0371530745706007
aF0.09725678049155895
aF0.5
aF0.5
aF0.5
aF0.5
aF0.8036363911687281
aF0.9892405843829121
aF0.5
aF0.026023134809212256
aI1
aF0.0004468014454513773
aF0.5
aF0.9891189990081276
aF0.5
aF0.5
aF0.5
aF0.5
aF0.5
aF0.009001637912702448
aF0.5
aF0.5
aF0.5
aI0
aF0.9197493321182989
aI1
aF0.5
aF0.9108329200281232
aI1
aF0.5446706903489684
aF0.5
aI1
aF0.5
aF0.9821093691393076
aI1
aF0.009908469424800476
aF0.5
aF0.5
aF0.004999504500049996
aF0.9999999108837813
aI1
aF0.5
aF0.5
aI1
aF0.5
aF0.9999092700034641
aI1
aF0.5
aF0.5
aI1
aI0
aI0
aI0
aI0
aI0
aI0
aI0
aI0
aI0
aI0
aI0
aI0
aI0
aI0
aI1
aI0
aI0
aI0
aI0
aI0
aI0
aI0
aI0
aI0
aI0
aI0
aI0
aF0.5
aF0.5
aF0.35322430915825226
aF0.5
aF0.37495107415214046
aF0.7780682364020228
aF0.5
aF0.5
aF0.5
aF0.5
aF0.8976675623337478
aF0.21400484856870333
aF0.5
aF0.9732203199100773
aI1
aF0.009008010087067704
aF0.5
aF0.22097961827899937
aF0.5
aF0.5
aF0.5
aF0.5
aF0.5
aF0.5707181223088054
aF0.5
aF0.5
aF0.5
aI0
aF0.12743450219919075
aF0.4958629112763552
aF0.5
aF0.24026485276784468
aF0.5
aF0.2619272909703081
aF0.5
aF0.10612160995011358
aF0.5
aF0.2486049707302492
aF0.5
aF0.9476198958070461
aF0.5
aI1
aF0.9090014627483453
aF0.8701092594944235
aF0.4956259198671876
aF0.5
aF0.5
aF0.3827245851418215
aF0.5
aF0.022615114076841913
aF0.8264800354376108
aF0.5
aF0.5
aF0.5
aI0
aF0.5
aF0.5
aI0
aF0.5
aF0.6345886165586534
aI0
aF0.5
aF0.5
aI0
aF0.5
aF0.8759641203353474
aI0
aF0.9813779640112731
aI1
aI0
aF0.5
aF0.5
aI0
aF0.5
aF0.5
aI0
aF0.5
aF0.5
aI0
aF0.5
aF0.5
aF0.5
aF0.26090683408468573
aF0.3087299865747858
aF0.5
aF0.9918844571439115
aF0.5
aF0.7555569410375067
aF0.5
aF0.9825930678475432
aF0.5
aF0.8375235803273164
aF0.5
aF0.10052140189250469
aF0.5
aI1
aF0.8176579269504667
aF0.8581344512107343
aF0.9377046908573932
aF0.5
aF0.5
aF0.25633817603224657
aF0.5
aF0.9999911569545368
aF0.2709814492619965
aF0.5
aF0.5
aF0.5
aI0
aF0.8975744393195436
aF0.5
aF0.5556172746025021
aF0.5
aF0.5
aF0.21501912255180933
aF0.812292067982735
aF0.9542181168086267
aF0.5
aF0.5
aF0.5
aF0.9878869106211227
aF0.5
aI1
aF0.5
aF0.8553059219968455
aF0.5
aF0.5450900459450541
aF0.9991242358255398
aF0.034641656038707974
aF0.5
aF0.9999982395284901
aF0.5
aF1.0
aF0.5
aF1.0
aI0
aF0.5
aF0.9961758385330479
aI0
aF0.9440568719551363
aF0.9999190064037773
aI0
aF0.5
aF0.5
aI0
aF0.508243510381735
aF0.5913092023131958
aI0
aF0.18392052848051943
aI1
aI0
aF0.5
aF0.5499954188730506
aI0
aF0.5
aF0.5
aI0
aF0.5
aF1.0
aI0
aF0.5
aF0.5
aF0.5
aF0.5
aF0.5
aF0.5
aF0.5
aF0.9897945518366783
aF0.5
aF0.5
aF0.5
aF0.5
aF0.5
aF0.5922649691933601
aF0.5
aF0.25882658296816285
aI1
aF0.5
aF0.5
aF0.5
aF0.5
aI0
aI0
aI0
aI0
aI0
aI0
aI0
aI0
aF0.5
aF0.5
aF0.5002872794794633
aF0.5
aF0.04177085395515712
aF0.26917666297098564
aF0.5
aF0.5
aF0.5
aF0.5
aF0.14363245424387516
aF0.5039709392913039
aF0.5
aF0.11495425986728769
aI1
aF0.9419452121122572
aF0.5
aF0.499509049860998
aF0.5
aI0
aI0
aI0
aI0
aI0
aI0
aI0
aI0
aF0.5
aF0.5
aF0.5
aI0
aF0.5
aF0.5
aI0
aF0.5
aF0.5
aI0
aF0.5
aF0.5
aI0
aF0.5
aI1
aI0
aF0.5
aF0.5
aI0
aI0
aI0
aF0.5
aI0
aI0
aF0.5
aI0
aI0
aF0.5
aF0.18135573839542496
aF0.8049946455988192
aF0.5
aF0.30835741053310706
aF0.5
aF0.8585139592760098
aF0.5
aF0.584696557110022
aF0.5
aF0.09455220806646791
aF0.5
aF0.1472995183894913
aF0.5
aI1
aF0.9000009816598682
aF0.9540089282563966
aF0.14243611038097692
aF0.5
aF0.5
aF0.2550136233531879
aF0.5
aF0.10092250679862307
aF0.2528266238895074
aF0.5
aF0.5
aF0.5
aI0
aF0.11491169495895348
aF0.5
aF0.9255454459275216
aF0.5
aF0.5
aF0.1899957570176014
aF0.3711983785130711
aF0.38652142186199767
aF0.5
aF0.5
aF0.5
aF0.9180288811101865
aF0.5
aI1
aF0.5
aF0.9909616713688674
aF0.5
aF1.0
aF0.0260795264746813
aF0.014366153567103995
aF0.5
aF0.005631673579306738
aF0.5
aF0.18100319220110317
aF0.5
aF0.4190446907674198
aI0
aF0.5
aF0.9918879564902188
aI0
aF0.9902163019010105
aF0.9989784408347476
aI0
aF0.5
aF0.5
aI0
aF0.029073733378266214
aF0.9999999549484653
aI0
aF0.892074007885017
aI1
aI0
aF0.5
aF0.9500495450450046
aI0
aF0.5
aF0.5
aI0
aF0.5
aF0.9910809019720815
aI0
aF0.5
aF0.5
aF0.5
aF0.9233057239412118
aF0.5
aF0.09082526181374691
aF0.5
aF0.5
aF0.09983213355634979
aF0.9404916356207718
aF0.9995050388168315
aF0.5
aF0.5
aF0.5
aF0.0008289081285677404
aF0.5
aI1
aF0.5
aF0.5500303108101762
aF0.5
aF0.9910080999738269
aF0.926929410504671
aF0.27085272260659055
aF0.5
aF0.9999974204772932
aF0.5
aF0.9999998282698461
aF0.5
aF1.0
aI0
aI1
aI1
aI1
aI1
aI1
aI1
aI1
aI1
aI1
aI1
aI1
aI1
aI1
aF0.5
aI1
aI1
aI1
aI1
aI1
aI1
aI1
aI1
aI1
aI1
aI1
aI1
aI1
aF0.9091627864317094
aF0.9550004491377816
aI0
aF0.9826217069734784
aF0.5
aI0
aF0.5
aF0.950450000544505
aI0
aF0.04841518349761896
aF0.5
aI0
aF0.5
aI1
aI0
aF0.05940536053553963
aF0.5
aI0
aF0.5
aF1.0
aI0
aF0.10072089179999999
aF1.0
aI0
aF0.5
aF0.5
aF0.5
aF0.5
aF0.007978112391984576
aF0.5
aF0.08964837378832376
aF0.9888752405453318
aF0.5
aF0.5
aF0.5
aF0.5
aF0.9641760632880098
aF0.999054335137964
aF0.5
aF0.1877066210544448
aI1
aF0.09909099990909986
aF0.5
aF0.4181576498779018
aF0.5
aI0
aI0
aI0
aI0
aI0
aI0
aI0
aI0
aF0.5
aF0.0802660556581622
aF0.040187478512199504
aF0.5
aF0.0008978220765981093
aF0.5
aF0.09999990989095675
aF0.5
aF0.008915452277328803
aF0.5
aF0.8785498342590731
aF0.5
aF0.9100809829159147
aF0.5
aI1
aF0.9909099990909991
aF0.009991448689689403
aF0.4950004545454955
aF0.5
aI0
aI0
aI0
aI0
aI0
aI0
aI0
aI0
aF0.5
aF0.5
aF0.5
aI0
aF0.5
aF0.5454803703486202
aI0
aF0.5
aF0.5
aI0
aF0.5
aF1.0
aI0
aF0.10008091000063069
aI1
aI0
aF0.5
aF0.5
aI0
aI0
aI0
aF0.5
aI0
aI0
aF0.5
aI0
aI0
aF0.5
aF0.5
aF0.5
aF0.5
aF0.5
aF0.9912334054460105
aF0.5
aF0.5
aF0.5
aF0.5
aF0.5
aF0.9560960583991309
aF0.5
aF0.48736315251683654
aI1
aF0.5
aF0.5
aF0.5
aF0.5
aF0.5
aF0.5
aF0.5
aF0.5
aF0.5
aF0.5
aF0.5
aF0.5
aI0
aF0.5
aF0.9674022453225207
aF0.5
aF0.992450641795911
aF0.9999645737727659
aF0.5
aF0.5
aF0.5
aF0.5
aF0.8767791273219935
aF0.9999387122399941
aF0.5
aF0.9916197794086667
aI1
aF0.5454450585496802
aF0.5
aF0.500040986462694
aF0.5
aF0.5
aF0.5
aF0.5
aF0.5
aF0.09008343188941781
aF0.5
aF0.5
aF0.5
aI0
aF0.5
aF0.5
aI0
aF0.5
aF0.5
aI0
aF0.5
aF0.5
aI0
aF0.5
aF0.5
aI0
aF0.5
aI1
aI0
aF0.5
aF0.5
aI0
aF0.5
aF0.5
aI0
aF0.5
aF0.5
aI0
aF0.5
aF0.5
aF0.5
aF0.5
aF0.9244317585740788
aF0.5
aF0.25147336003934306
aF0.9974322728590882
aF0.5
aF0.5
aF0.5
aF0.5
aF0.5908222153642324
aF0.9926190548952556
aF0.5
aF0.17221419459292386
aI1
aF0.09041499143652143
aF0.5
aF0.5459450810553588
aF0.5
aF0.5
aF0.5
aF0.5
aF0.5
aF0.1899901972802539
aF0.5
aF0.5
aF0.5
aI0
aF0.9063868033390581
aF0.9189933394368294
aF0.5
aF0.9107367922290411
aF0.5
aF0.9593654121064129
aF0.5
aF0.910813599590532
aF0.5
aF0.5519993339563274
aF0.5
aF0.9872151435593559
aF0.5
aI1
aF0.9954950004500005
aF0.9990999411393534
aF0.9995004954954505
aF0.5
aF0.5
aF0.9918098928198866
aF0.5
aF0.9999999026944315
aF0.09999990900999989
aF0.5
aF0.5
aF0.5
aI0
aF0.5
aF0.5
aI0
aF0.5
aF1.0
aI0
aF0.5
aF0.5
aI0
aF0.5
aF0.9959490233295265
aI0
aF0.50540535954419
aI1
aI0
aF0.5
aF0.5
aI0
aF0.5
aF0.5
aI0
aF0.5
aF0.5
aI0
aF0.5
aF0.5
aF0.5
aF0.5
aF0.5
aF0.5
aF0.5
aF0.5
aF0.5
aF0.5
aF0.5
aF0.5
aF0.5
aF0.5
aF0.5
aF0.5
aI1
aF0.5
aF0.5
aF0.5
aF0.5
aI0
aI0
aI0
aI0
aI0
aI0
aI0
aI0
aF0.5
aF0.5
aF0.5
aF0.5
aF0.5
aF0.1890073972063704
aF0.5
aF0.5
aF0.5
aF0.5
aF0.5
aF0.995491490905347
aF0.5
aF0.590365888056082
aI1
aF0.5
aF0.5
aF0.5
aF0.5
aI0
aI0
aI0
aI0
aI0
aI0
aI0
aI0
aF0.5
aI0
aI0
aF0.5
aI0
aI0
aF0.5
aI0
aI0
aF0.5
aI0
aI0
aF0.5
aI0
aI1
aF0.5
aI0
aI0
aF0.5
aF0.5
aF0.5
aF0.5
aF0.5
aF0.5
aF0.5
aF0.5
aF0.5
aF0.5
aF0.994412219093077
aF0.5
aF0.9969222781658212
aF0.5
aF0.5
aF0.9244687659617247
aF0.7886094584233683
aF0.9995706628376222
aF0.5
aF0.5
aF0.5
aF0.9822186091523627
aF0.5
aI1
aF0.5
aF0.5583474375641562
aF0.5
aF0.9262345320446645
aF0.18432690954676068
aF0.13834204075632675
aF0.5
aF0.2838982637950369
aF0.5
aF0.2556514649233552
aF0.5
aF0.5790938090822784
aI0
aF0.5
aF0.5
aF0.92364404729779
aF0.5
aF0.5
aF0.5
aF0.9171407274752205
aF0.5
aF0.4349996060995262
aF0.5
aF0.5
aF0.5
aF0.5
aI1
aF0.5
aF0.5
aF0.5
aF0.9631245341202466
aF0.15939549737026237
aF0.5
aF0.09091534637429408
aF0.5
aF0.5
aF0.8263094031978923
aF0.18685004525255589
aF0.10984925140489865
aI0
aF0.6094281340448453
aF0.589259929206149
aF0.5
aF0.21472288913916582
aF0.5
aF0.9166564503967508
aF0.5
aF0.9995838482068248
aF0.5
aF0.9624608282374317
aF0.5
aF0.9984985135937057
aF0.5
aI1
aF0.8199894205559569
aF0.9903338783638893
aF0.9995456182439209
aF0.5
aF0.5
aF0.13675679064941315
aF0.5
aF0.2214755254826687
aF0.09640506124244419
aF0.5
aF0.5
aF0.5
aI0
aF0.5
aF0.5
aF0.9999963171822782
aI1
aI1
aI1
aF0.256636729203068
aF0.5
aF0.10527229890265875
aF0.5
aF0.5
aF0.5
aI1
aF0.5
aI1
aF0.5
aF0.5
aF0.9106916783358556
aF0.11564900182370857
aF0.5
aF0.09927422735797686
aI1
aI1
aI1
aF0.25381196306059295
aF0.9880144864945177
aI0
aF0.5
aF0.5
aF0.5
aI1
aI1
aI1
aF0.5
aF0.5
aF0.08585400060592818
aF0.5
aF0.5
aF0.5
aI1
aF0.5
aI1
aF0.5
aF0.5
aF0.5
aF0.5
aF0.5
aF0.9027683097571145
aI1
aI1
aI1
aF0.18986943110098742
aF0.5
aI0
aF0.957636487034343
aF0.5
aF0.9979735648308383
aI1
aI1
aI1
aF0.9922544926799542
aF0.9990964309630388
aF0.5
aF0.5
aF0.5
aF0.9162982820385493
aI1
aF0.5
aI1
aF0.9950281218255952
aF0.5
aF0.9189994546924515
aF0.5536261787433936
aF0.999995003485762
aF0.5
aI1
aI1
aI1
aF0.5
aF0.549999950081139
aI0
aF0.10804142420972798
aF0.919246174226119
aF0.5
aF0.10197658422091152
aF0.5
aF0.8155193420526922
aF0.5
aF0.881568962005806
aF0.5
aF0.849435193551854
aF0.5
aF0.8269780274763874
aF0.5
aI1
aF0.001584814121608769
aF0.8822905723036439
aF0.9171225760930467
aF0.5
aF0.5
aF0.0550131271379517
aF0.5
aF0.7591986645165931
aF0.40136076236070095
aF0.5
aF0.5
aF0.5
aI0
aF0.8702461655926736
aF0.5
aF0.17386029172846806
aF0.5
aF0.5
aF0.1059807880642834
aF0.2790886087405833
aF0.21681701139006027
aF0.5
aF0.5
aF0.5
aF0.1798193434920955
aF0.5
aI1
aF0.5
aF0.9568625983402174
aF0.5
aF0.9983449064433865
aF0.009020732514305364
aF0.008630926493288754
aF0.5
aF0.1774077641206473
aF0.5
aF0.09990671741838157
aF0.5
aF0.18155945968476672
aI0
aF0.5
aF0.16109949058308215
aF0.5
aF0.15881923915277216
aF0.9489744788327165
aF0.5
aF0.5
aF0.5
aF0.5
aF0.5189123390050876
aF0.4660760801994444
aF0.5
aF0.172649744211403
aI1
aF0.0
aF0.5
aF0.9188092176547428
aF0.5
aF0.5
aF0.5
aF0.5
aF0.5
aF0.44595534289014044
aF0.5
aF0.5
aF0.5
aI0
aF0.5
aF0.5
aF0.9816724510375204
aF0.5
aF0.5
aF0.5
aF0.922829670468187
aF0.5
aF0.9892428168168316
aF0.5
aF0.5
aF0.5
aF0.5
aI1
aF0.5
aF0.5
aF0.5
aF0.9971563800349594
aF0.6153987108135685
aF0.5
aF0.9155986906427619
aF0.5
aF0.5
aF0.505496616477234
aF0.16511592448531776
aF0.9147769651344377
aI0
aF0.5
aF0.5
aF0.5
aF0.5
aF0.5
aF0.5
aF0.5
aF0.5
aF0.9179695332465805
aF0.5
aF0.5
aF0.5
aF0.5
aI1
aF0.5
aF0.5
aF0.5
aF0.5
aF0.5
aF0.5
aF0.01298169261460165
aF0.5
aF0.5
aF0.5
aF0.08839214802295214
aF0.5
aI0
aF0.9502722951843874
aF0.5
aF0.10542963550971791
aF0.5
aF0.5
aF0.9179862214254084
aF0.5174406973175909
aF0.9996301677336498
aF0.5
aF0.5
aF0.5
aF0.9906483010275194
aF0.5
aI1
aF0.5
aF0.9893393288041378
aF0.5
aF0.9998200818593399
aF0.9221037325860907
aF0.9391846949620638
aF0.5
aF0.999988731073465
aF0.5
aF0.999991008100081
aF0.5
aF0.5895991488834692
aI0
aF0.5
aF0.5
aF0.5
aI1
aI1
aI1
aF0.5
aF0.5
aF0.002051050933655433
aF0.5
aF0.5
aF0.5
aI1
aF0.5
aI1
aF0.5
aF0.5
aF0.5
aF0.5
aF0.5
aF0.9162835711155276
aI1
aI1
aI1
aF0.17252985007517918
aF0.5
aI0
aI1
aI1
aI1
aF0.5
aF0.5
aF0.5
aI1
aI1
aI1
aI1
aI1
aI1
aF0.5
aF0.5
aF0.5
aI1
aI1
aI1
aI1
aI1
aI1
aF0.5
aF0.5
aF0.5
aI1
aI1
aI1
aF0.5
aF0.5
aF0.009802992879160213
aI1
aI1
aI1
aF0.9008264667886599
aF0.5
aF0.9007478109656936
aF0.5
aF0.5
aF0.5
aI1
aF0.5
aI1
aF0.5
aF0.5
aF0.9000999999909901
aF0.1386287312140132
aF0.5
aF0.9990826452019078
aI1
aI1
aI1
aF0.0472182088479199
aF0.95045049504545
aI0
aF0.16933097227144733
aF0.5
aF0.4476041269419787
aF0.5
aF0.5
aF0.0014915229336995078
aF0.8562737237955474
aF0.9431569349380596
aF0.5
aF0.5
aF0.5
aF0.017324928499529657
aF0.5
aI1
aF0.5
aF0.12861136785977628
aF0.5
aF0.10652058856717161
aF0.09745988295938166
aF0.516247134306163
aF0.5
aF0.015083276024784001
aF0.5
aF0.0008110639089727294
aF0.5
aF0.10874887283862211
aI0
aF0.5
aF0.5
aF0.0008191745074660585
aF0.5
aF0.5
aF0.5
aF0.22903861965972205
aF0.5
aF0.909875888351177
aF0.5
aF0.5
aF0.5
aF0.5
aI1
aF0.5
aF0.5
aF0.5
aF0.00909990099090098
aF0.00864735337260443
aF0.5
aF0.0
aF0.5
aF0.5
aF0.0
aF0.9729350930517393
aF0.09000999099990903
aI0
aF0.6177567292365814
aF0.9548101677031875
aF0.5
aF0.1160055998482747
aF0.5
aF0.008378110556810273
aF0.5
aF0.9594549594151874
aF0.5
aF0.2207252115525185
aF0.5
aF0.9089919063013843
aF0.5
aI1
aF0.0
aF0.54504594411764
aF0.9549549995499504
aF0.5
aF0.5
aF0.5086745738085876
aF0.5
aF0.8554089651094318
aF0.499504500495045
aF0.5
aF0.5
aF0.5
aI0
aF0.6619553897364203
aF0.9972230087108107
aF0.5
aF0.9652885064292945
aF0.5
aF0.338974319522198
aF0.5
aF0.9989283407250262
aF0.5
aF0.9918706542595623
aF0.5
aF0.5890789603194082
aF0.5
aI1
aF0.37323310559208667
aF0.2260558631883982
aF0.9181877482904585
aF0.5
aF0.5
aF0.0938226791789201
aF0.5
aF0.9735719397053942
aF0.08120703504359639
aF0.5
aF0.5
aF0.5
aI0
aF0.9144572746508859
aF0.5
aF0.593314195890102
aF0.5
aF0.5
aF0.8608268132877358
aF0.19280623214787546
aF0.9475794445650785
aF0.5
aF0.5
aF0.5
aF0.9581146837189246
aF0.5
aI1
aF0.5
aF0.998637985497771
aF0.5
aF0.999910812789307
aF0.8333503419054835
aF0.9826782144665439
aF0.5
aF0.9805399338826754
aF0.5
aF0.9893880991793881
aF0.5
aF0.9959048076429934
aI0
aF0.5
aF0.5445708263558406
aF0.5
aF0.7593095496169191
aF0.09099899762608521
aF0.5
aF0.5
aF0.5
aF0.5
aF0.8328460091145272
aF0.8380915351591453
aF0.5
aF0.18036088789263893
aI1
aF0.04103510463049087
aF0.5
aF0.09999963002726109
aF0.5
aF0.5
aF0.5
aF0.5
aF0.5
aF0.9040905904554442
aF0.5
aF0.5
aF0.5
aI0
aF0.9999596993256047
aF0.5
aF0.6586551416013859
aI1
aI1
aI1
aF0.9047667672460215
aF0.9998476155857063
aF0.5
aF0.5
aF0.5
aF0.631063179475136
aI1
aF0.5
aI1
aF0.9992585087873228
aF0.5
aF0.9955322244544522
aF0.982435087509869
aF0.09073070861010091
aF0.5
aI1
aI1
aI1
aF0.5
aF0.9999008580193424
aI0
aF0.5
aF0.5
aF0.796555238134657
aI1
aI1
aI1
aF0.1564909895608836
aF0.5
aF0.553992252046268
aF0.5
aF0.5
aF0.5
aI1
aF0.5
aI1
aF0.5
aF0.5
aF0.549995495454505
aF0.8355674548373719
aF0.5
aF0.8191000080899927
aI1
aI1
aI1
aF0.08367547232650796
aF0.9999999990909009
aI0
aF0.5645321701505029
aF0.5938511873483404
aF0.5
aI1
aI1
aI1
aF0.5
aF0.9999950868181904
aF0.5
aF0.9633429788433849
aF0.5
aF0.9901445903599269
aI1
aF0.5
aI1
aF0.999950504454959
aF1.0
aF0.5
aF0.5
aF0.5459094954954994
aF0.5
aI1
aI1
aI1
aF0.5
aF0.5
aI0
aF0.5
aF0.9267389563649384
aF0.5
aF0.10368808811790597
aF0.9963884070023801
aF0.5
aF0.5
aF0.5
aF0.5
aF0.16417335787023013
aF0.09966254196464708
aF0.5
aF0.012671903260205342
aI1
aF0.4050207654990599
aF0.5
aF0.018056458007098528
aF0.5
aF0.5
aF0.5
aF0.5
aF0.5
aF0.0
aF0.5
aF0.5
aF0.5
aI0
aF0.9908993662700147
aF0.999427585240375
aF0.5
aF0.9994728856929658
aF0.5
aF0.8645776448061973
aF0.5
aF0.5450495867608505
aF0.5
aF0.5374427027582638
aF0.5
aF0.986400357941391
aF0.5
aI1
aF0.45000450454545454
aF0.9099995137754082
aF0.9500454545045001
aF0.5
aF0.5
aF0.9994878085595318
aF0.5
aF0.9999855216421197
aF0.0
aF0.5
aF0.5
aF0.5
aI0
aI0
aI0
aI0
aI0
aI0
aI0
aI0
aI0
aI0
aI0
aI0
aI0
aI0
aI1
aI0
aI0
aI0
aI0
aI0
aI0
aI0
aI0
aI0
aI0
aI0
aI0
aF0.5
aF0.5
aF0.5
aF0.9143751745252353
aF0.5
aF0.5
aF0.5
aF0.2752812577054524
aF0.5
aF0.09843007836913405
aF0.5
aF0.5
aF0.5
aF0.5
aI1
aF0.5
aF0.5
aF0.5
aF0.9999999914931171
aF0.10543046073400164
aF0.5
aF0.18733743452144513
aF0.5
aF0.5
aF0.2685625389980332
aF0.5116758549736007
aF0.5502080399734965
aI0
aF0.5
aI1
aF0.5
aF0.5
aI1
aF0.5
aF0.5
aI1
aF0.08133586927156172
aF0.5
aI1
aF0.5
aF0.5
aF0.5
aF0.5
aF0.5
aI1
aF0.5
aF0.5
aI1
aF0.9081194497198509
aF0.5
aI1
aF0.5
aF0.09763299105985368
aI1
aI0
aF0.07034236866187404
aF0.5
aF0.9960204574651224
aF0.5
aF0.5
aF0.9955805531571913
aF0.9247991969082131
aF0.9999757106882354
aF0.5
aF0.5
aF0.5
aF0.9999201649820444
aF0.5
aI1
aF0.5
aF0.9557728270649452
aF0.5
aF0.9056215822421346
aF0.592947083427563
aF0.8968951886421629
aF0.5
aF0.9958235033778793
aF0.5
aF1.0
aF0.5
aF0.9459945958469773
aI0
aF0.5
aF0.5
aF0.5
aI1
aI1
aI1
aF0.5
aF0.5
aF0.09109769337814944
aI1
aI1
aI1
aF0.5
aF0.5
aF0.5
aI1
aI1
aI1
aF0.5
aF0.5
aF0.9019633169482044
aI1
aI1
aI1
aF0.4993494252237847
aF0.5
aI0
aF0.5
aI1
aF0.5
aI1
aF0.5
aI1
aF0.5
aI1
aF0.5
aI1
aF0.5
aI1
aF0.5
aF0.5
aF0.5
aI1
aF0.5
aI1
aF0.5
aI1
aF0.5
aI1
aF0.5
aI1
aF0.5
aI1
aI0
aF0.5
aF0.5
aF0.9999999999915897
aI1
aI1
aI1
aF0.9999972043853299
aF0.5
aF0.9100891899009836
aI1
aI1
aI1
aF0.5
aF0.5
aF0.5
aI1
aI1
aI1
aF0.549091916014861
aF0.5
aF0.999172899990911
aI1
aI1
aI1
aF0.49996277734592115
aF0.5
aI0
aF0.8345379301946546
aF0.5
aF0.9038602378994456
aF0.5
aF0.5
aF0.9591465354258829
aF0.15386879798186365
aF0.9942092047329317
aF0.5
aF0.5
aF0.5
aF0.8174643471453572
aF0.5
aI1
aF0.5
aF0.5903616619669207
aF0.5
aF0.9082710294459575
aF0.17715609091923534
aF0.9990878444601204
aF0.5
aF0.6090367149933649
aF0.5
aF0.18729181087227809
aF0.5
aF1.0
aI0
aF0.5
aI1
aF0.008349939595692829
aF0.5
aI1
aF0.5
aF0.10081818176207036
aI1
aF0.08927363627191637
aF0.5
aI1
aF0.5
aF0.5
aF0.5
aF0.5
aF0.5
aI1
aF0.09909090909000906
aF0.10146707024064346
aI1
aF0.09180108908106466
aF0.5
aI1
aF0.909900999909909
aF0.991899108909982
aI1
aI0
aF0.00875197880137486
aF0.008360344760899224
aF0.5
aF0.3804051739662184
aF0.5
aF0.09009017280845011
aF0.5
aF0.9464039600803777
aF0.5
aF0.004914206517509116
aF0.5
aF0.049501175198289726
aF0.5
aI1
aF0.0
aF0.549950405454865
aF0.45499950045045
aF0.5
aF0.5
aF0.45054959448604515
aF0.5
aF0.5855036188513708
aF0.49950004504999956
aF0.5
aF0.5
aF0.5
aI0
aF0.5
aF0.5
aF0.5
aF0.5
aF0.5
aF0.5
aF0.5
aF0.5
aF0.18920532802589907
aF0.5
aF0.5
aF0.5
aF0.5
aI1
aF0.5
aF0.5
aF0.5
aF0.5
aF0.5
aF0.5
aF0.10859982659054446
aF0.5
aF0.5
aF0.5
aF0.9945596905165606
aF0.5
aI0
aF0.5
aI1
aF0.5
aF0.5
aI1
aF0.5
aF0.5
aI1
aF0.5
aF0.5
aI1
aF0.5
aF0.5
aF0.5
aF0.5
aF0.5
aI1
aF0.5
aF0.5
aI1
aF0.5
aF0.5
aI1
aF0.5
aF0.5
aI1
aI0
aF0.5
aF0.5
aF0.9909762615271842
aF0.5
aF0.5
aF0.5
aF0.9918670370701236
aF0.5
aF0.9099999898309077
aF0.5
aF0.5
aF0.5
aF0.5
aI1
aF0.5
aF0.5
aF0.5
aF0.999950045045495
aF0.954142265515535
aF0.5
aF0.9999998353267542
aF0.5
aF0.5
aF1.0
aF0.9959396548104382
aF0.9954995004950451
aI0
aF0.5
aF0.5
aF0.5
aI1
aI1
aI1
aF0.5
aF0.5
aF0.5
aI1
aI1
aI1
aF0.5
aF0.5
aF0.5
aI1
aI1
aI1
aF0.5
aF0.5
aF0.5
aI1
aI1
aI1
aF0.5
aF0.5
aI0
aI1
aF0.5
aI1
aF0.5
aF0.5
aF0.5
aI1
aF0.5
aI1
aF0.5
aF0.5
aF0.5
aF0.5
aF0.5
aF0.5
aF0.5
aF0.5
aF0.5
aI1
aF0.5
aI1
aF0.5
aF0.5
aF0.5
aI1
aF0.5
aI1
aF0.5
aF0.5
aF0.5
aI1
aI1
aI1
aF0.5
aF0.5
aF0.9900099099900909
aI1
aI1
aI1
aF0.5
aF0.5
aF0.5
aI1
aI1
aI1
aF0.5
aF0.5
aF0.9990909009909
aI1
aI1
aI1
aF0.049954545495454916
aF0.5
aI0
aF0.5
aF0.5
aF0.9074568678602446
aF0.5
aF0.5
aF0.5
aF0.918258164658371
aF0.5
aF0.9418223214046392
aF0.5
aF0.5
aF0.5
aF0.5
aI1
aF0.5
aF0.5
aF0.5
aF0.004549545454545008
aF0.9261188561142915
aF0.5
aF0.017379990088345565
aF0.5
aF0.5
aF0.09900090009999996
aF0.9999181792188795
aF1.0
aI0
aF0.5
aI1
aF0.5
aF0.5
aI1
aF0.5
aF0.5
aI1
aF0.0
aF0.5
aI1
aF0.5
aF0.5
aF0.5
aF0.5
aF0.5
aI1
aF0.5
aF0.5
aI1
aF0.0
aF0.5
aI1
aF0.5
aF0.999099900999909
aI1
aI0
aF0.9382175781055804
aF0.5
aF0.9540532154962302
aF0.5
aF0.5
aF0.0009909099009009093
aF0.5045940549500819
aF0.9950049504549501
aF0.5
aF0.5
aF0.5
aF0.4995000499549545
aF0.5
aI1
aF0.5
aF0.5
aF0.5
aF0.5
aF0.990909643146889
aF0.5499999950495
aF0.5
aF0.5495450004500495
aF0.5
aF1.0
aF0.5
aF1.0
aI0
aF0.9999540124990485
aF0.5
aF0.9837139556013801
aF0.5
aF0.5
aF0.054144238579938164
aF0.9999844532619683
aF0.9999544657307603
aF0.5
aF0.5
aF0.5
aF0.9982777057266947
aF0.5
aI1
aF0.5
aF0.9999999999991908
aF0.5
aF1.0
aF0.7300431408451072
aF0.008226115494689303
aF0.5
aF0.9179274225419634
aF0.5
aF0.9999189991081089
aF0.5
aF0.9495009898231681
aI0
aF0.5
aI1
aF0.1816964684130543
aF0.5
aI1
aF0.5
aF0.1818918910776932
aI1
aF0.9999812709010893
aF0.5
aI1
aF0.5
aF0.5
aF0.5
aF0.5
aF0.5
aI1
aF1.0
aF0.8342467129484692
aI1
aF0.9089207919882287
aF0.5
aI1
aF0.9999009909999009
aF0.09099099009909095
aI1
aI0
aF0.16398849303619756
aF0.07374464888074972
aF0.5
aF0.9004692197852427
aF0.5
aF0.950904950941449
aF0.5
aF0.9999999132462509
aF0.5
aF0.9229028012495907
aF0.5
aF0.999991445540419
aF0.5
aI1
aF0.495450495045455
aF0.999998920000163
aF0.999999909999
aF0.5
aF0.5
aF0.0004104941493658226
aF0.5
aF0.909909999999009
aF0.0
aF0.5
aF0.5
aF0.5
aI0
aF0.5
aF0.5
aF0.9092866231138075
aI1
aI1
aI1
aF0.9918248929011739
aF0.5
aF0.9999999821627185
aI1
aI1
aI1
aF0.5
aF0.5
aF0.5
aI1
aI1
aI1
aF0.8911317845887479
aF0.5
aF0.9900099999091
aI1
aI1
aI1
aF0.00045090872101756756
aF0.4999500450049545
aI0
aF0.5
aI1
aF0.5
aI1
aF0.5
aI1
aF0.5
aI1
aF0.9999999009090002
aI1
aF0.5
aI1
aF0.5
aF0.5
aF0.5
aI1
aF0.5
aI1
aF0.5
aI1
aF0.0
aI1
aF0.5
aI1
aF0.0
aI1
aI0
aF0.5213133128300127
aF0.5
aF1.0
aI1
aI1
aI1
aF0.5908681818586892
aF0.9999999545454545
aF0.5
aI1
aI1
aI1
aF0.5
aF0.5
aF0.5
aI1
aI1
aI1
aF0.509049464405954
aF0.4954549950495045
aF0.5
aI1
aI1
aI1
aF0.5
aF0.5
aI0
aF0.900812797512529
aF0.918810417798074
aF0.5
aF0.007390479542141823
aF0.5
aF0.008370736292601197
aF0.5
aF0.9108999091000001
aF0.5
aF0.08262117152013493
aF0.5
aF0.09900891909108733
aF0.5
aI1
aF0.0
aF0.9180109881188298
aF0.0990009999090099
aF0.5
aF0.5
aF0.9999090990099999
aF0.5
aF0.811155573950126
aF0.0
aF0.5
aF0.5
aF0.5
aI0
aF0.9926215470935544
aI1
aF0.9917110817920926
aF0.5
aI1
aF0.09099909000990003
aF1.0
aI1
aF0.5
aF0.5
aI1
aF0.09099000909000099
aF0.5
aF0.5
aF0.5
aF1.0
aI1
aF1.0
aF0.9918189100818835
aI1
aF0.5
aF0.9999990009099001
aI1
aF1.0
aF0.5
aI1
aI0
aI0
aI0
aI0
aI0
aI0
aI0
aI0
aI0
aI0
aI0
aI0
aI0
aI0
aI1
aI0
aI0
aI0
aI0
aI0
aI0
aI0
aI0
aI0
aI0
aI0
aI0
aF0.5
aF0.5720088167305016
aF0.8848327849941439
aF0.5
aF0.3587800732986247
aF0.5
aF0.13467912510877744
aF0.5
aF0.5511407276712389
aF0.5
aF0.5424877450754358
aF0.5
aF0.9107304447090141
aF0.5
aI1
aF0.004545049821161634
aF0.502235339668832
aF0.9613407256138573
aF0.5
aF0.5
aF0.7697139383154334
aF0.5
aF0.12199352539262576
aF0.5489327141591263
aF0.5
aF0.5
aF0.5
aI0
aF0.5717682861242587
aF0.5
aF0.6573932654860434
aF0.5
aF0.5
aF0.6260100189575333
aF0.22961016797167078
aF0.5081130335287282
aF0.5
aF0.5
aF0.5
aF0.9946537285137617
aF0.5
aI1
aF0.5
aF0.5005197949406972
aF0.5
aF0.9959042286971563
aF0.0341818910559859
aF0.08957565402625373
aF0.5
aF0.8108282046683564
aF0.5
aF0.05904181265407793
aF0.5
aF0.010979137726450386
aI0
aF0.5
aF0.9571463382026946
aI0
aF0.25041449027600937
aF0.9913093942368402
aI0
aF0.5
aF0.5
aI0
aF0.9686176407698309
aF0.9062856774850405
aI0
aF0.09828735633452464
aI1
aI0
aF0.5
aF0.9999545175135224
aI0
aF0.5
aF0.5
aI0
aF0.5
aF0.5008415007092402
aI0
aF0.5
aF0.5
aF0.5
aF0.9812477222686545
aF0.5
aF0.9903181054440529
aI1
aI1
aI1
aF0.5259771348106587
aF0.9906060272240736
aF0.5
aF0.5
aF0.5
aF0.019225237939132528
aI1
aF0.5
aI1
aF0.5093790536575545
aF0.5
aF0.0014040404808576962
aF0.19013071487908373
aF0.992700448261992
aF0.5
aI1
aI1
aI1
aF0.5
aF1.0
aI0
aF0.5
aF0.5
aF0.9999163083339038
aI1
aI1
aI1
aF0.5460820431500403
aF0.5
aF0.9909859963809295
aF0.5
aF0.5
aF0.5
aI1
aF0.5
aI1
aF0.5
aF0.5
aF0.99999549500495
aF0.9116850359223704
aF0.5
aF0.9910818018278363
aI1
aI1
aI1
aF0.18999189918173542
aF1.0
aI0
aF0.9002000135017623
aF0.9995905393970577
aI0
aI1
aI1
aI1
aF0.5
aF0.9999549509495045
aI0
aF0.5441938960429374
aF0.5
aI0
aI1
aF0.5
aI1
aF0.9868571257500066
aF0.9995450495454954
aI0
aF0.5
aF1.0
aI0
aI1
aI1
aI1
aF0.5
aF0.5
aF0.5
aF0.5
aF0.8956684113913753
aF0.5
aF0.8150666435661079
aF0.9043126607785033
aF0.5
aF0.5
aF0.5
aF0.5
aF0.919742862495137
aF0.546709765139585
aF0.5
aF0.08988891515830316
aI1
aF0.04095085909717299
aF0.5
aF0.9184509541323505
aF0.5
aI0
aI0
aI0
aI0
aI0
aI0
aI0
aI0
aF0.5
aF0.5635815527398321
aF0.9195807778957144
aF0.5
aF0.0004495656121902402
aF0.5
aF0.45445954459597687
aF0.5
aF0.4991008995395642
aF0.5
aF0.09516425537754214
aF0.5
aF0.9909851013709099
aF0.5
aI1
aF0.004995499549549538
aF0.9548171204230864
aF0.5
aF0.5
aI0
aI0
aI0
aI0
aI0
aI0
aI0
aI0
aF0.5
aF0.5
aF0.5
aI0
aF0.5
aF0.9000000333036638
aI0
aF0.5
aF0.5
aI0
aF0.5
aF0.902636991099263
aI0
aF0.09900909073097985
aI1
aI0
aF0.5
aF0.5
aI0
aI0
aI0
aF0.5
aI0
aI0
aF0.5
aI0
aI0
aF0.5
aF0.041676954572713226
aF0.5
aF0.902843686987405
aF0.5
aF0.5
aF0.890434797556011
aF0.9313253786942205
aF0.5092095973035777
aF0.5
aF0.5
aF0.5
aF0.0034013125958545117
aF0.5
aI1
aF0.5
aF0.9983627234981814
aF0.5
aF0.1793700192698091
aF0.028535333830734685
aF0.8353458118456644
aF0.5
aF0.09017215883245482
aF0.5
aF0.944685993779272
aF0.5
aF0.009181001690379914
aI0
aF0.5
aF0.5
aF0.1393101381944544
aF0.5
aF0.5
aF0.5
aF0.13758345285746698
aF0.5
aF0.9999999999108818
aF0.5
aF0.5
aF0.5
aF0.5
aI1
aF0.5
aF0.5
aF0.5
aF1.0
aF0.0902307327454952
aF0.5
aF0.14368959414413096
aF0.5
aF0.5
aF0.049549999549544976
aF0.09091792179089264
aF0.0009900999990990894
aI0
aF0.10183971324521654
aF0.9999865431874218
aI0
aF0.09731578626627954
aF0.5
aI0
aF0.5
aF0.9999991404949603
aI0
aF0.022076570367786208
aF0.5
aI0
aF0.5
aI1
aI0
aF0.5454957687286006
aF0.99999995499545
aI0
aF0.5
aF0.9829620855220672
aI0
aF0.09999918801981189
aF0.990990000999009
aI0
aF0.5
aF0.5
aF0.5
aF0.5
aF0.5
aF0.08271853290866482
aI1
aI1
aI1
aF0.9589457762929686
aF0.5
aF0.0010800171917206298
aF0.5
aF0.5
aF0.5
aI1
aF0.5
aI1
aF0.5
aF0.5
aF9.900900099999008e-05
aF0.999991899990831
aF0.5
aF0.9909999909099991
aI1
aI1
aI1
aF0.9821798216945115
aF1.0
aI0
aI1
aI1
aI1
aF0.5
aF0.5
aF0.5
aI1
aI1
aI1
aI1
aI1
aI1
aF0.5
aF0.5
aF0.5
aI1
aI1
aI1
aI1
aI1
aI1
aF0.5
aF0.5
aF0.5
aI1
aI1
aI1
aF0.9099862791682047
aF0.5
aI0
aI1
aI1
aI1
aF0.06215441896405151
aF0.9995450000495005
aI0
aF0.5
aF0.5
aI0
aI1
aF0.5
aI1
aF0.004950499995004541
aF0.5
aI0
aF0.991081008099992
aF1.0
aI0
aI1
aI1
aI1
aF0.5
aF1.0
aF0.5
aF0.8474532633682719
aF0.781830332582146
aF0.5
aF0.986210381099772
aF0.5
aF0.0
aF0.5
aF0.09450749809992187
aF0.5
aF0.9910355965176308
aF0.5
aF0.00991818738812511
aF0.5
aI1
aF0.0
aF0.9998367397510776
aF0.5499504504504955
aF0.5
aI0
aI0
aI0
aI0
aI0
aI0
aI0
aI0
aF0.5
aF0.11908828600713528
aF0.5
aF8.274476330396576e-05
aF0.5
aF0.5
aF0.0
aF0.17225745832077644
aF0.049500499999500014
aF0.5
aF0.5
aF0.5
aF0.009099099009999001
aF0.5
aI1
aF0.5
aF0.9999545499545045
aF0.5
aF1.0
aI0
aI0
aI0
aI0
aI0
aI0
aI0
aI0
aF0.5
aF0.5
aF0.9091088271268227
aI0
aF0.10792134188577984
aF0.9999009900990001
aI0
aF0.5
aF0.5
aI0
aF0.9918099171999817
aF1.0
aI0
aF0.0009990909090009086
aI1
aI0
aF0.5
aF1.0
aI0
aI0
aI0
aF0.5
aI0
aI0
aF0.5
aI0
aI0
aF0.5
aF0.5
aF0.5197161124033766
aF0.5
aF0.3138842118448484
aF0.19717696512122895
aF0.5
aF0.5
aF0.5
aF0.5
aF0.5842526283977161
aF0.5127920284995182
aF0.5
aF0.4787022406964373
aI1
aF0.9593686758156296
aF0.5
aF0.585869949425881
aF0.5
aF0.5
aF0.5
aF0.5
aF0.5
aF0.9009009409598645
aF0.5
aF0.5
aF0.5
aI0
aF0.7719243018056324
aF0.546901265424393
aF0.5
aF0.25741580687077537
aF0.5
aF0.5904500508864986
aF0.5
aF0.500446399644825
aF0.5
aF0.5092667019620588
aF0.5
aF0.5446441003500148
aF0.5
aI1
aF0.54549549950495
aF0.5
aF0.5
aF0.5
aF0.5
aF0.09827117204589075
aF0.5
aF0.9090009990090263
aF0.0
aF0.5
aF0.5
aF0.5
aI0
aF0.5
aF0.5
aI0
aF0.5
aF0.9999999544689181
aI0
aF0.5
aF0.5
aI0
aF0.5
aF0.9472510984178701
aI0
aF0.09999009009999005
aI1
aI0
aF0.5
aF0.5
aI0
aF0.5
aF0.5
aI0
aF0.5
aF0.5
aI0
aF0.5
aF0.5
aF0.5
aF0.5313954841041674
aF0.9834915415171062
aF0.5
aI1
aI1
aI1
aF0.5
aF0.9103207477877571
aF0.5
aF0.5500369434833023
aF0.5
aF0.5900851412186863
aI1
aF0.5
aI1
aF0.5041440086504037
aF0.5045049549545001
aF0.5
aF0.5
aF0.9991899828173719
aF0.5
aI1
aI1
aI1
aF0.5
aF0.5
aI0
aF0.946345167506421
aF0.5
aF0.9505048510431701
aI1
aI1
aI1
aF0.5491732591444926
aF0.950454549954545
aF0.5
aF0.5
aF0.5
aF0.5495450049999995
aI1
aF0.5
aI1
aF0.5
aF0.5
aF0.5
aF0.9918108100818164
aF0.9990900909999909
aF0.5
aI1
aI1
aI1
aF0.5
aF1.0
aI0
aF0.5
aF0.5941899064315077
aI0
aI1
aI1
aI1
aF0.5
aF0.5
aI0
aF0.997542942857639
aF0.54954995049505
aI0
aI1
aF0.5
aI1
aF0.5
aF1.0
aI0
aF0.5
aF0.5
aI0
aI1
aI1
aI1
aF0.5
aF0.5
aF0.5
aF0.5
aF0.5
aF0.5
aF0.5
aF0.10898999991935854
aF0.5
aF0.5
aF0.5
aF0.5
aF0.5
aF0.9100396683904676
aF0.5
aF0.4878504982736219
aI1
aF0.5
aF0.5
aF0.5
aF0.5
aI0
aI0
aI0
aI0
aI0
aI0
aI0
aI0
aF0.5
aF0.5
aF0.009850689095753734
aF0.5
aF0.17955626838169325
aF0.009999090900009014
aF0.5
aF0.5
aF0.5
aF0.5
aF0.5414446530402305
aF0.504504954999955
aF0.5
aF0.549950495454995
aI1
aF0.5
aF0.5
aF0.5
aF0.5
aI0
aI0
aI0
aI0
aI0
aI0
aI0
aI0
aF0.5
aI0
aI0
aF0.5
aI0
aI0
aF0.5
aI0
aI0
aF0.5
aI0
aI0
aF0.5
aI0
aI1
aF0.5
aI0
aI0
aF0.5
aF0.5
aF0.5
aF0.5
aF0.5
aF0.5
aF0.5
aF0.5
aF0.5
aF0.5
aF0.5
aF0.7755288817251326
aF0.5
aF0.6279539582320526
aF0.7716566580437301
aF0.5
aF0.5
aF0.5
aF0.5
aF0.9171288923264976
aF0.8655109711099612
aF0.5
aF0.5966018030542801
aI1
aF0.9564812591860536
aF0.5
aF0.3188221562947693
aF0.5
aF0.5
aF0.5
aF0.5
aF0.5
aF0.8364562468257781
aF0.5
aF0.5
aF0.5
aI0
aF0.5893869282157621
aF0.31442908439676787
aF0.5
aF0.5566904041142893
aF0.5
aF0.5019073883046927
aF0.5
aF0.1794849664069662
aF0.5
aF0.8281509058380498
aF0.5
aF0.48804980960861266
aF0.5
aI1
aF0.9564605301367943
aF0.9180602321745095
aF0.959360024884201
aF0.5
aF0.5
aF0.9098119348855956
aF0.5
aF0.8038246370549414
aF0.17934447824254485
aF0.5
aF0.5
aF0.5
aI0
aF0.5
aF0.5
aF0.5
aF0.5
aF0.9799718323976141
aF0.5
aF0.5
aF0.5
aF0.5
aF0.5
aF0.8680514917493066
aF0.5
aF0.2695157264091024
aI1
aF0.5
aF0.5
aF0.5
aF0.5
aF0.5
aF0.5
aF0.5
aF0.5
aF0.5
aF0.5
aF0.5
aF0.5
aI0
aF0.6906920542685833
aF0.8513677945545489
aF0.5
aF0.9149682124712682
aF0.5
aF0.2893851397316801
aF0.5
aF0.9798368516374857
aF0.5
aF0.981135734553989
aF0.5
aF0.49001794704847135
aF0.5
aI1
aF0.4558166543451595
aF0.9328553576996508
aF0.8742706010167424
aF0.5
aF0.5
aF0.1071470886467011
aF0.5
aF0.8950467997171019
aF0.9094227827456914
aF0.5
aF0.5
aF0.5
aI0
aF0.5969709879967556
aF0.5
aF0.6306830199716751
aF0.5
aF0.5
aF0.9213060940234514
aF0.9114773855306286
aF0.9499640775013748
aF0.5
aF0.5
aF0.5
aF0.9577902296445762
aF0.5
aI1
aF0.5
aF0.9959499541538417
aF0.5
aF0.9554094949183547
aF0.8617636307611473
aF0.09831269539894882
aF0.5
aF0.8464565449784379
aF0.5
aF0.950090405952958
aF0.5
aF1.0
aI0
aF0.5
aF0.9882908604786308
aF0.5
aF0.9908898880853553
aF0.9958978131610905
aF0.5
aF0.5
aF0.5
aF0.5
aF0.9230120858411779
aF0.9999999995477961
aF0.5
aF0.9837024392915267
aI1
aF0.9027171018910605
aF0.5
aF0.9995000557967293
aF0.5
aF0.5
aF0.5
aF0.5
aF0.5
aF0.9995499412076088
aF0.5
aF0.5
aF0.5
aI0
aF0.5
aF0.5
aF0.5
aF0.5
aF0.985317117571538
aF0.5
aI0
aI0
aI0
aF0.5
aF0.9171992544518116
aF0.5
aF0.5540752857154213
aI1
aF0.5
aI0
aI0
aI0
aF0.5
aF0.5
aF0.5
aF0.5
aF0.5
aF0.5
aI0
aI0
aF0.5
aF0.5
aF0.23827075737348685
aF0.5
aF0.16054247915222747
aF0.2545556656212
aF0.5
aI0
aI0
aI0
aF0.8553452183544784
aF0.8101743781429922
aF0.5
aF0.496020083496502
aI1
aF0.490533117441929
aI0
aI0
aI0
aF0.5
aF0.5
aF0.5
aF0.5
aF0.09836036507970036
aF0.5
aI0
aI0
aF0.5
aF0.5
aF0.5
aF0.5
aF0.5
aF0.5
aF0.5
aI0
aI0
aI0
aF0.5
aF0.5
aF0.5
aF0.5
aI1
aF0.5
aI0
aI0
aI0
aF0.5
aF0.5
aF0.5
aF0.5
aF0.5
aF0.5
aI0
aI0
aF0.5
aF0.17926106300312195
aF0.8289034713203005
aF0.5
aF0.21469892255178058
aF0.5
aF0.9957462463981381
aF0.5
aF0.9139716989826765
aF0.5
aF0.9709508542302663
aF0.5
aF0.9823057350368316
aF0.5
aI1
aF0.9996519956612615
aF0.91478058522491
aF0.2700779134530432
aF0.5
aF0.5
aF0.8306487022927339
aF0.5
aF0.8981044515043828
aF0.5760796130889307
aF0.5
aF0.5
aF0.5
aI0
aF0.967804707293069
aF0.5
aF0.9971505306724462
aF0.5
aF0.5
aF0.9828036283111072
aF0.26609659289386967
aF0.18737182774314376
aF0.5
aF0.5
aF0.5
aF0.475531087204984
aF0.5
aI1
aF0.5
aF0.9094538776137926
aF0.5
aF0.42354999940158194
aF0.9826014069900457
aF0.48952134121741053
aF0.5
aF0.8921662545466614
aF0.5
aF0.9906683316399595
aF0.5
aF0.09868680896506343
aI0
aF0.5
aF0.9013997452875857
aF0.5
aF0.5519943834375797
aF0.9866053700530908
aF0.5
aF0.5
aF0.5
aF0.5
aF0.9338226491575138
aF0.970759038359428
aF0.5
aF0.9254390080763584
aI1
aF0.9171998190181057
aF0.5
aF0.983799981816744
aF0.5
aF0.5
aF0.5
aF0.5
aF0.5
aF0.5000004585585861
aF0.5
aF0.5
aF0.5
aI0
aF0.6576941395587055
aF0.5
aF0.8448039401193478
aF0.5
aF0.5
aF0.9887109545354734
aF0.963178740878737
aF0.9954674558115156
aF0.5
aF0.5
aF0.5
aF0.11546528890505564
aF0.5
aI1
aF0.5
aF0.9999999925406688
aF0.5
aF1.0
aF0.6286628435603212
aF0.2697330868385167
aF0.5
aF0.9935418959169395
aF0.5
aF0.9995130999007371
aF0.5
aF0.9999958599995865
aI0
aI1
aI1
aI1
aI1
aI1
aI1
aI1
aI1
aI1
aI1
aI1
aI1
aI1
aF0.5
aI1
aI1
aI1
aI1
aI1
aI1
aI1
aI1
aI1
aI1
aI1
aI1
aI1
aF0.9560831350760673
aF0.9878097285172764
aF0.5
aF0.957388601453351
aF0.5
aF0.544222274439938
aF0.5
aF0.9954599369810546
aF0.5
aF0.9516658210914485
aF0.5
aF0.1891089010712782
aF0.5
aI1
aF0.909909990009009
aF0.9590937382437035
aF0.5045499549500005
aF0.5
aF0.5
aF0.990991327238194
aF0.5
aF0.9941049015440009
aF0.9995000004500045
aF0.5
aF0.5
aF0.5
aI0
aF0.5
aF0.8349056475268027
aF0.5
aF0.13764208421730392
aF0.13382821732579653
aF0.5
aI0
aI0
aI0
aF0.1697406875826737
aF0.08192831143171586
aF0.5
aF0.9999172971352973
aI1
aF0.9998813530998725
aI0
aI0
aI0
aF0.5
aF0.5
aF0.5
aF0.5
aF0.09533201314354522
aF0.5
aI0
aI0
aF0.5
aF0.05217432649657805
aF8.190874588821968e-05
aF0.5
aF0.16283371224955268
aF0.5
aF0.9045991021032316
aI0
aI0
aI0
aF0.9990066764923652
aF0.5
aF0.9999011457673124
aF0.5
aI1
aF0.9990000000990009
aI0
aI0
aI0
aF0.5
aF0.9000991783168479
aF0.5
aF0.05044870858413376
aF0.00909090009900991
aF0.5
aI0
aI0
aF0.5
aF0.5
aF0.5
aF0.5
aF0.5
aF0.5908607321774806
aF0.5
aI0
aI0
aI0
aF0.5
aF0.9100818108011612
aF0.5
aF1.0
aI1
aF0.5
aI0
aI0
aI0
aF0.5
aF0.5
aF0.5
aF0.5
aF0.5
aF0.5
aI0
aI0
aF0.5
aF0.5
aF0.5
aF0.5
aF0.5
aF0.9998543669918687
aF0.5
aF0.5
aF0.5
aF0.5
aF0.5
aF0.9993374595931082
aF0.5
aF0.9578008727665821
aI1
aF0.5
aF0.5
aF0.5
aF0.5
aF0.5
aF0.5
aF0.5
aF0.5
aF0.5
aF0.5
aF0.5
aF0.5
aI0
aF0.5
aF0.9992021206470392
aF0.5
aF0.6187075057560734
aF0.999989381515258
aF0.5
aF0.5
aF0.5
aF0.5
aF0.933981150373438
aF0.9926645893910934
aF0.5
aF0.999998620091382
aI1
aF0.9540990550304833
aF0.5
aF0.9983749550726086
aF0.5
aF0.5
aF0.5
aF0.5
aF0.5
aF0.9990262072819731
aF0.5
aF0.5
aF0.5
aI0
aF0.5
aF0.5
aF0.5
aF0.5
aF0.5
aF0.5
aF0.5
aF0.5
aF0.5
aF0.5
aF0.5
aF0.5
aF0.5
aI1
aF0.5
aF0.5
aF0.5
aF0.5
aF0.5
aF0.5
aF0.5
aF0.5
aF0.5
aF0.5
aF0.5
aF0.5
aI0
aF0.5
aF0.9275500808583105
aF0.5
aF0.9964695419923791
aF0.9196540057839858
aF0.5
aF0.5
aF0.5
aF0.5
aF0.9874137076521695
aF0.9107998034004645
aF0.5
aF0.9991965108096251
aI1
aF0.5099365862183882
aF0.5
aF0.5868906359855989
aF0.5
aF0.5
aF0.5
aF0.5
aF0.5
aF0.9819991079039394
aF0.5
aF0.5
aF0.5
aI0
aF0.6237649686838516
aF0.9911443358964419
aF0.5
aF0.9868561198032593
aF0.5
aF0.5054008554098722
aF0.5
aF0.9999959450950361
aF0.5
aF0.9958017297083801
aF0.5
aF0.95900419404419
aF0.5
aI1
aF0.9500499549995005
aF0.9958685499593825
aF0.9995454950454955
aF0.5
aF0.5
aF0.9901710983086579
aF0.5
aF0.4910571233284959
aF0.9009009000090099
aF0.5
aF0.5
aF0.5
aI0
aF0.5
aF0.5
aF0.5
aF0.5
aF0.9554045940515344
aF0.5
aF0.5
aF0.5
aF0.5
aF0.5
aF1.0
aF0.5
aF0.5908562604630148
aI1
aF0.5
aF0.5
aF0.5
aF0.5
aF0.5
aF0.5
aF0.5
aF0.5
aF0.5
aF0.5
aF0.5
aF0.5
aI0
aF0.5
aF0.5
aF0.5
aF0.5
aF0.5
aF0.5
aI0
aI0
aI0
aF0.5
aF0.5
aF0.5
aF0.5
aI1
aF0.5
aI0
aI0
aI0
aF0.5
aF0.5
aF0.5
aF0.5
aF0.5
aF0.5
aI0
aI0
aF0.5
aF0.5
aF0.5
aF0.5
aF0.5
aF1.0
aF0.5
aI0
aI0
aI0
aF0.5
aF0.9099109810080657
aF0.5
aF0.5049995090454815
aI1
aF0.5
aI0
aI0
aI0
aF0.5
aF0.5
aF0.5
aF0.5
aF0.5
aF0.5
aI0
aI0
aF0.5
aI0
aI0
aI0
aI0
aI0
aI0
aF0.5
aF0.5
aF0.5
aI0
aI0
aI0
aI0
aI1
aI0
aF0.5
aF0.5
aF0.5
aI0
aI0
aI0
aI0
aI0
aI0
aF0.5
aF0.5
aF0.5
aF0.6379966151456684
aF0.9994833917410834
aF0.5
aF0.5984431598538222
aF0.5
aF0.8722526380946873
aF0.5
aF0.9989057145068982
aF0.5
aF0.9924273444046675
aF0.5
aF0.5135147535012881
aF0.5
aI1
aF0.9833102924086811
aF0.9497424193989529
aF0.9446470952155853
aF0.5
aF0.5
aF0.9664903372733533
aF0.5
aF0.23186125858557177
aF0.5838417374309064
aF0.5
aF0.5
aF0.5
aI0
aF0.9977382190565283
aI1
aF0.18425172830015868
aF0.5
aI1
aF0.8689316149680566
aF0.3423808665974859
aI1
aF0.5
aF0.5
aI1
aF0.46360688504640124
aF0.5
aF0.5
aF0.5
aF0.26937788916748784
aI1
aF0.9999458598114896
aF0.9444381167392599
aI1
aF0.5
aF0.8719139538689412
aI1
aF0.5004509721276708
aF0.5
aI1
aI0
aF0.5
aF0.6307141242298318
aF0.5
aF0.9499641043471377
aF0.5896879659218797
aF0.5
aF0.5
aF0.5
aF0.5
aF0.9256865338587701
aF0.9999999999998314
aF0.5
aF0.19616364815648502
aI1
aF1.0
aF0.5
aF0.49955064030465757
aF0.5
aF0.5
aF0.5
aF0.5
aF0.5
aF0.5447205914863721
aF0.5
aF0.5
aF0.5
aI0
aF0.9938310042118959
aF0.5
aF0.9481801533458112
aF0.5
aF0.5
aF0.9999176702759818
aF0.9988375333171505
aF0.9999925837534427
aF0.5
aI1
aI1
aI1
aI1
aF0.5
aI1
aI1
aI1
aI1
aF0.9599472000102024
aF0.962777747349318
aF0.5
aF0.9012448387230637
aF0.5
aF0.9455053969025791
aF0.5
aF0.5945864013185945
aI0
aF0.5
aI1
aF0.9999918827067343
aF0.5
aI1
aF0.5
aF0.9878702759609665
aI1
aF0.9999910890108199
aI1
aF0.5
aI1
aI1
aF0.5
aI1
aI1
aF0.5
aI1
aF0.9991319189220832
aI1
aF0.4959468825345911
aF0.5
aI1
aF0.9950000004500495
aF0.9144545378040047
aI1
aI0
aF0.6298270259586458
aF0.9999999999955299
aF0.5
aF0.5896262454857342
aF0.5
aF0.9953330899968105
aF0.5
aF1.0
aF0.5
aI1
aI1
aI1
aI1
aF0.5
aI1
aI1
aI1
aI1
aF0.5
aF0.5945454954995016
aF0.5
aF0.9095078332386604
aF0.9549995045495
aF0.5
aF0.5
aF0.5
aI0
aF0.5
aF0.9507279116172733
aF0.5
aF0.5545498109568707
aF0.99999995854154
aF0.5
aI0
aI0
aI0
aF0.24770001876293068
aF0.17336922683473704
aF0.5
aF0.5046119476614455
aI1
aF0.5039956928935629
aI0
aI0
aI0
aF0.5
aF0.5
aF0.5
aF0.5
aF0.590540400100004
aF0.5
aI0
aI0
aF0.5
aF0.9138714094375071
aI1
aF0.5
aF0.9844658644214713
aI1
aF0.4553826028710133
aI0
aI1
aI0
aF0.8633053315481982
aI1
aF0.4463680826749432
aF0.5
aF0.5
aF0.4500045049500495
aI0
aI1
aI0
aF0.5
aI1
aF0.5
aF0.9469400422113591
aI1
aF0.5
aI0
aI1
aF0.5
aF0.5
aF0.5
aF0.5
aF0.5
aF0.5094499676462034
aF0.5
aI0
aI0
aI0
aF0.5
aF0.0017352244727050735
aF0.5
aF0.901826216272235
aI1
aF0.5
aI0
aI0
aI0
aF0.5
aF0.5
aF0.5
aF0.5
aF0.5
aF0.5
aI0
aI0
aF0.5
aF0.9941393356602216
aF0.5
aF0.5537209949322113
aF0.5
aF0.5
aF0.15592537110024063
aF0.8798973299702219
aF0.9871939503596044
aF0.5
aF0.5
aF0.5
aF0.9943184557951275
aF0.5
aI1
aF0.5
aF0.9957765261065117
aF0.5
aF0.9549999995504095
aF0.7616842406723613
aF0.2610698008292909
aF0.5
aF0.5449754322279763
aF0.5
aF0.5004905127398143
aF0.5
aF0.18094696348638206
aI0
aF0.5
aI1
aF0.1036225626477878
aF0.5
aI1
aF0.5
aF0.09065343790142255
aI1
aF0.054503955954175065
aF0.5
aI1
aF0.5
aF0.5
aF0.5
aF0.5
aF0.5
aI1
aF0.4549999999500455
aF0.9991853166684497
aI1
aF0.9594459948736012
aF0.5
aI1
aF0.9549950454549505
aF0.09999090991000004
aI1
aI0
aF0.9943943682574461
aF0.9943144709249897
aF0.5
aF0.9540631440396257
aF0.5
aF0.9545406239463423
aF0.5
aF0.9999999999908115
aF0.5
aF0.9983812310408587
aF0.5
aF1.0
aF0.5
aI1
aF1.0
aF0.9999991801883685
aF0.909999999999909
aF0.5
aF0.5
aF0.540504990229236
aF0.5
aF0.5
aF0.5
aF0.5
aF0.5
aF0.5
aI0
aF0.5
aF0.5
aF0.5488061519743062
aF0.5
aF0.5
aF0.5
aF0.9997068506802103
aF0.5
aF0.5458640450581314
aI1
aI1
aI1
aI1
aF0.5
aI1
aI1
aI1
aI1
aF0.589635457290304
aF0.5
aF0.9135900586833304
aF0.5
aF0.5
aF0.504500049549995
aF0.955444550755113
aF0.5049545000454505
aI0
aI1
aF0.5
aI1
aI1
aF0.5
aI1
aI1
aF0.5
aI1
aF0.5
aF0.5
aF0.5
aF0.5
aF0.5
aF0.5
aF0.5
aF0.5
aF0.5
aI1
aF0.5
aI1
aI1
aF0.5
aI1
aI1
aF0.5
aI1
aF0.9999958508085146
aF0.5
aF0.5454950090818189
aF0.5
aF0.5
aF0.9999545454504546
aF0.9999999991368919
aF1.0
aF0.5
aI1
aI1
aI1
aI1
aF0.5
aI1
aI1
aI1
aI1
aF0.5454095422311911
aF0.9954545495004995
aF0.5
aF0.5
aF0.5
aF0.5
aF0.5
aF1.0
aI0
aF0.916265483214333
aF0.9452633100809138
aF0.5
aF0.918089454283591
aF0.5
aF0.08695643518506185
aI0
aI0
aI0
aF0.9826495987367975
aF0.5
aF0.9089992071099912
aF0.5
aI1
aF0.99990900990001
aI0
aI0
aI0
aF0.5
aF0.5000130017995206
aF0.5
aF0.9181395427424023
aF0.9545499995004505
aF0.5
aI0
aI0
aF0.5
aF0.9021403597055093
aI1
aF0.049553594991168654
aF0.5
aI1
aF0.0499995499500005
aI0
aI1
aI0
aF0.5
aI1
aF0.0
aF0.5
aF0.5
aF0.5
aI0
aI1
aI0
aF0.4554906278094942
aI1
aF0.5
aF0.95004504545495
aI1
aF0.5
aI0
aI1
aF0.5
aF0.5
aF0.588295705679641
aF0.5
aF0.9991081814684125
aF0.5495049954999545
aF0.5
aI0
aI0
aI0
aF0.9991007289173629
aF0.990009090090009
aF0.5
aF1.0
aI1
aF1.0
aI0
aI0
aI0
aF0.5
aF0.5
aF0.5
aF0.5
aF0.5
aF0.5
aI0
aI0
aF0.5
aF0.5
aF0.9999851533653922
aF0.5
aF0.6314281011358409
aF0.9998460409065145
aF0.5
aF0.5
aF0.5
aF0.5
aF0.9999999461292555
aF0.9999078812194016
aF0.5
aF0.9995018713878584
aI1
aF0.9945671540099081
aF0.5
aF0.05503546756533656
aF0.5
aF0.5
aF0.5
aF0.5
aF0.5
aF0.9991081810000064
aF0.5
aF0.5
aF0.5
aI0
aF0.6163456965204795
aI1
aF0.5
aF0.5906905198148871
aI1
aF0.9095013821288225
aF0.5
aI1
aF0.5
aF0.9999999842036463
aI1
aF0.5814239250692448
aF0.5
aF0.5
aF0.9999504504950499
aF0.18819983880026436
aI1
aF0.5
aF0.5
aI1
aF0.5
aF0.545895013619691
aI1
aF0.5
aF0.5
aI1
aI0
aF0.5
aF0.5
aF0.5
aF0.5
aF0.9905950793752288
aF0.5
aF0.5
aF0.5
aF0.5
aF0.5
aF0.954549100315405
aF0.5
aF0.10889307180721802
aI1
aF0.5
aF0.5
aF0.5
aF0.5
aF0.5
aF0.5
aF0.5
aF0.5
aF0.5
aF0.5
aF0.5
aF0.5
aI0
aF0.5198360308791778
aF0.9999990999430439
aF0.5
aF0.5912211024129008
aF0.5
aF0.9995504086441814
aF0.5
aF1.0
aF0.5
aI1
aI1
aI1
aI1
aF0.5
aI1
aI1
aI1
aI1
aF0.5
aF0.999189181089092
aF0.5
aF0.12288918835033119
aF0.09009099090099904
aF0.5
aF0.5
aF0.5
aI0
aF0.9585510507205603
aI1
aF0.5904549597709814
aF0.5
aI1
aF0.9545004999950499
aF0.9950868880954693
aI1
aF0.5
aI1
aF0.5
aI1
aI1
aF0.5
aI1
aI1
aF0.5
aI1
aF0.9995409405145037
aI1
aF0.5
aF0.49549500045454953
aI1
aF0.5
aF0.5
aI1
aI0
aF0.5
aF0.959049999959009
aF0.5
aF0.9954594541989504
aF0.954504500049955
aF0.5
aF0.5
aF0.5
aF0.5
aI1
aI1
aI1
aI1
aF0.5
aI1
aI1
aI1
aI1
aF0.5
aF0.5
aF0.5
aF0.5
aF1.0
aF0.5
aF0.5
aF0.5
aI0
aF0.5
aF0.5
aF0.5
aF0.5
aF0.9181891800917209
aF0.5
aI0
aI0
aI0
aF0.5
aF0.9099090909900011
aF0.5
aF0.540995012609
aI1
aF0.5
aI0
aI0
aI0
aF0.5
aF0.5
aF0.5
aF0.5
aF0.5
aF0.5
aI0
aI0
aF0.5
aF0.5
aI1
aF0.5
aF0.9950004995908963
aI1
aF0.5
aI0
aI1
aI0
aF0.9504423504536406
aI1
aF0.5
aF0.5
aF0.5
aF0.5
aI0
aI1
aI0
aF0.5
aI1
aF0.5
aF0.5
aI1
aF0.5
aI0
aI1
aF0.5
aI0
aI0
aI0
aI0
aI0
aI0
aF0.5
aF0.5
aF0.5
aI0
aI0
aI0
aI0
aI1
aI0
aF0.5
aF0.5
aF0.5
aI0
aI0
aI0
aI0
aI0
aI0
aF0.5
aF0.5
aF0.5
aF0.5
aF0.5
aF0.5
aF0.5
aF0.7566369193349045
aF0.5
aF0.5
aF0.5
aF0.5
aF0.5
aF0.9008309117409486
aF0.5
aF0.9851089935699217
aI1
aF0.5
aF0.5
aF0.5
aF0.5
aF0.5
aF0.5
aF0.5
aF0.5
aF0.5
aF0.5
aF0.5
aF0.5
aI0
aF0.5
aF0.7533774754858173
aF0.5
aF0.5356395882817893
aF0.8190917925765184
aF0.5
aF0.5
aF0.5
aF0.5
aF0.25537416699842275
aF0.08201731015941124
aF0.5
aF0.5894093925452227
aI1
aF0.4999567504787584
aF0.5
aF0.09100476551787073
aF0.5
aF0.5
aF0.5
aF0.5
aF0.5
aF0.9001970116468373
aF0.5
aF0.5
aF0.5
aI0
aF0.5
aF0.5
aI0
aF0.5
aF0.5
aI0
aF0.5
aF0.5
aI0
aF0.5
aF0.5
aI0
aF0.5
aI1
aI0
aF0.5
aF0.5
aI0
aF0.5
aF0.5
aI0
aF0.5
aF0.5
aI0
aF0.5
aF0.5
aF0.5
aF0.5
aF0.2497118667007835
aF0.5
aF0.2065984129135512
aF0.9097186052965645
aF0.5
aF0.5
aF0.5
aF0.5
aF0.23804670863178234
aF0.18373255638081565
aF0.5
aF0.818919337379345
aI1
aF0.409982846720075
aF0.5
aF0.10307130223347394
aF0.5
aF0.5
aF0.5
aF0.5
aF0.5
aF0.9990838539262378
aF0.5
aF0.5
aF0.5
aI0
aF0.9092733967487598
aF0.17377230316519865
aF0.5
aF0.7943104721628753
aF0.5
aF0.12789045530703158
aF0.5
aF0.999999099261911
aF0.5
aF0.21686109632303496
aF0.5
aF0.5441004864594949
aF0.5
aI1
aF0.045049500045004964
aF0.901455232370647
aF0.00999909900999009
aF0.5
aF0.5
aF0.018198001970946787
aF0.5
aF0.9181801088865058
aF0.009099990990909981
aF0.5
aF0.5
aF0.5
aI0
aF0.5
aF0.5
aI0
aF0.5
aF0.9999892809261852
aI0
aF0.5
aF0.5
aI0
aF0.5
aF0.5459089594158857
aI0
aF0.04959009863281033
aI1
aI0
aF0.5
aF0.5
aI0
aF0.5
aF0.5
aI0
aF0.5
aF0.5
aI0
aF0.5
aF0.5
aF0.5
aF0.5
aF0.5
aF0.5
aF0.5
aF0.5
aF0.5
aI0
aI0
aI0
aF0.5
aF0.5
aF0.5
aF0.5
aI1
aF0.5
aI0
aI0
aI0
aI0
aI0
aI0
aI0
aI0
aI0
aF0.5
aF0.5
aF0.5
aF0.5
aF0.5
aF0.5
aF0.5
aF0.9090099179999145
aF0.5
aI0
aI0
aI0
aF0.5
aF0.9001727352119611
aF0.5
aF0.09983718968491073
aI1
aF0.5
aI0
aI0
aI0
aI0
aI0
aI0
aI0
aI0
aI0
aF0.5
aF0.5
aF0.5
aF0.5
aF0.5
aI0
aF0.5
aF0.5
aI0
aI0
aI0
aF0.5
aF0.5
aF0.5
aI0
aF0.5
aI1
aI0
aI0
aI0
aF0.5
aI0
aI0
aF0.5
aI0
aI0
aF0.5
aF0.5
aF0.5
aF0.5
aF0.5
aF0.8916428236384945
aF0.5
aF0.2458762120768282
aF0.0017279097510024006
aF0.5
aF0.5
aF0.5
aF0.5
aF0.0015642611524390344
aF0.9899927580439221
aF0.5
aF0.09819998330045854
aI1
aF0.90820989723699
aF0.5
aF0.09017109102235132
aF0.5
aF0.5
aF0.5
aF0.5
aF0.5
aF0.0008288892016429378
aF0.5
aF0.5
aF0.5
aI0
aF0.7319699340964669
aF0.8100999455654039
aF0.5
aF0.8111238816028444
aF0.5
aF0.9828982099802538
aF0.5
aF0.9900050450854595
aF0.5
aF0.8911980825601672
aF0.5
aF0.9917201718821783
aF0.5
aI1
aF0.9909000999901
aF0.9999000999099099
aF0.0
aF0.5
aF0.5
aF0.0004959405508553911
aF0.5
aF0.9000090090108721
aF0.0
aF0.5
aF0.5
aF0.5
aI0
aF0.5
aF0.5
aI0
aF0.5
aF0.995496228753201
aI0
aF0.5
aF0.5
aI0
aF0.5
aF0.9999914050315089
aI0
aF0.999909099099991
aI1
aI0
aF0.5
aF0.5
aI0
aF0.5
aF0.5
aI0
aF0.5
aF0.5
aI0
aF0.5
aF0.5
aF0.5
aF0.2697622677370356
aF0.9508206437442306
aF0.5
aF0.837979102256516
aF0.5
aF0.9909008207037008
aF0.5
aF0.9995054049176451
aF0.5
aF0.16800450997115746
aF0.5
aF0.0009999099009990898
aF0.5
aI1
aF0.0
aF0.09108108099220952
aF0.0045045045045449955
aF0.5
aF0.5
aF0.1891890812055581
aF0.5
aF0.9918999082753396
aF0.09909999000909897
aF0.5
aF0.5
aF0.5
aI0
aI1
aI1
aI1
aI1
aI1
aI1
aI1
aI1
aI1
aI1
aI1
aI1
aI1
aF0.5
aI1
aI1
aI1
aI1
aI1
aI1
aI1
aI1
aI1
aI1
aI1
aI1
aI1
aF0.5
aF0.5000049958431696
aI0
aF0.9909997274697294
aF0.999999090909001
aI0
aF0.5
aF0.5
aI0
aF0.99549045895545
aF0.49954545004500495
aI0
aF0.0
aI1
aI0
aF0.5
aF0.5
aI0
aF0.5
aF0.5
aI0
aF0.5
aF1.0
aI0
aF0.5
aF0.5
aF0.5
aF0.5
aF0.5
aF0.5
aF0.5
aF0.004140104450040448
aF0.5
aI0
aI0
aI0
aF0.5
aF0.9999090099091
aF0.5
aF0.8200080359372797
aI1
aF0.5
aI0
aI0
aI0
aI0
aI0
aI0
aI0
aI0
aI0
aF0.5
aF0.5
aF0.5
aF0.5
aF0.0
aF0.5
aF0.8910844469756112
aF0.0
aF0.5
aI0
aI0
aI0
aF0.999008369200072
aF0.0
aF0.5
aF0.999000090099091
aI1
aF1.0
aI0
aI0
aI0
aI0
aI0
aI0
aI0
aI0
aI0
aF0.5
aF0.5
aF0.5
aF0.5
aF0.5
aI0
aF0.5
aF0.5
aI0
aI0
aI0
aF0.5
aF0.5
aF0.5
aI0
aF0.5
aI1
aI0
aI0
aI0
aF0.5
aI0
aI0
aF0.5
aI0
aI0
aF0.5
aF0.5
aF0.5
aF0.5
aF0.5
aF0.5
aF0.5
aF0.5
aF0.5
aF0.5
aF0.5
aF0.5
aF0.5
aF0.5
aF0.5
aF0.5
aF0.5
aI1
aF0.5
aF0.5
aF0.5
aF0.5
aF0.5
aF0.5
aF0.5
aF0.5
aF0.5
aF0.5
aF0.5
aF0.5
aI0
aF0.5
aF0.5
aF0.5
aF0.5
aF0.999991089179208
aF0.5
aF0.5
aF0.5
aF0.5
aF0.5
aF0.9999999974873524
aF0.5
aF0.5499500142650364
aI1
aF0.5
aF0.5
aF0.5
aF0.5
aF0.5
aF0.5
aF0.5
aF0.5
aF0.5
aF0.5
aF0.5
aF0.5
aI0
aF0.5
aF0.5
aI0
aF0.5
aF0.5
aI0
aF0.5
aF0.5
aI0
aF0.5
aF0.5
aI0
aF0.5
aI1
aI0
aF0.5
aF0.5
aI0
aF0.5
aF0.5
aI0
aF0.5
aF0.5
aI0
aF0.5
aF0.5
aF0.5
aF0.5
aF0.5
aF0.5
aF0.5
aF0.9107297109093511
aF0.5
aF0.5
aF0.5
aF0.5
aF0.5
aF0.9918909910887491
aF0.5
aF0.504909049537757
aI1
aF0.5
aF0.5
aF0.5
aF0.5
aF0.5
aF0.5
aF0.5
aF0.5
aF0.5
aF0.5
aF0.5
aF0.5
aI0
aF0.5
aF0.9918917028809282
aF0.5
aF0.9945464036409689
aF0.9990099099
aF0.5
aF0.5
aF0.5
aF0.5
aF0.14044990708300348
aF0.09999999099990098
aF0.5
aF0.4999504999545455
aI1
aF0.5
aF0.5
aF1.0
aF0.5
aF0.5
aF0.5
aF0.5
aF0.5
aF1.0
aF0.5
aF0.5
aF0.5
aI0
aF0.5
aF0.5
aI0
aF0.5
aF0.5
aI0
aF0.5
aF0.5
aI0
aF0.5
aF0.5
aI0
aF0.5
aI1
aI0
aF0.5
aF0.5
aI0
aF0.5
aF0.5
aI0
aF0.5
aF0.5
aI0
aF0.5
aF0.5
aF0.5
aF0.5
aF0.5
aF0.5
aF0.5
aF0.5
aF0.5
aI0
aI0
aI0
aF0.5
aF0.5
aF0.5
aF0.5
aI1
aF0.5
aI0
aI0
aI0
aI0
aI0
aI0
aI0
aI0
aI0
aF0.5
aF0.5
aF0.5
aF0.5
aF0.5
aF0.5
aF0.5
aF0.5
aF0.5
aI0
aI0
aI0
aF0.5
aF0.5
aF0.5
aF0.5
aI1
aF0.5
aI0
aI0
aI0
aI0
aI0
aI0
aI0
aI0
aI0
aF0.5
aF0.5
aF0.5
aI0
aI0
aF0.5
aI0
aI0
aF0.5
aF0.5
aF0.5
aF0.5
aI0
aI0
aF0.5
aI0
aI1
aF0.5
aF0.5
aF0.5
aF0.5
aF0.5
aF0.5
aF0.5
aF0.5
aF0.5
aF0.5
aF0.5
aF0.5
aF0.5
aF0.9655765474309486
aF0.5
aF0.8020490786724795
aF0.5
aF0.5
aF0.6479171695890418
aF0.6331954584965831
aF0.9832056694937716
aF0.5
aF0.5
aF0.5
aF0.5188785899821767
aF0.5
aI1
aF0.5
aF0.9771051561143361
aF0.5
aF0.9479661529838602
aF0.8833986923962303
aF0.9616174552628353
aF0.5
aF0.22635014215523708
aF0.5
aF0.626770462758884
aF0.5
aF0.9816607033154714
aI0
aF0.5
aF0.5
aF0.7993404158146951
aF0.5
aF0.5
aF0.5
aF0.9190182678678337
aF0.5
aF0.5278030498073123
aF0.5
aF0.5
aF0.5
aF0.5
aI1
aF0.5
aF0.5
aF0.5
aF0.5018595504762293
aF0.209755613041806
aF0.5
aF0.8123515631068723
aF0.5
aF0.5
aF0.8013119011482766
aF0.09194714194375636
aF0.8980317826369872
aI0
aF0.9714403811842176
aF0.9590201415057866
aF0.5
aF0.9790094808798036
aF0.5
aF0.09461389744878054
aF0.5
aF0.9998379047292031
aF0.5
aF0.9226344246476571
aF0.5
aF0.9166622005200511
aF0.5
aI1
aF0.2626270163270088
aF0.9843391012018105
aF0.9095946478633048
aF0.5
aF0.5
aF0.5579842586907803
aF0.5
aF0.4803847936332048
aF0.0892563893502325
aF0.5
aF0.5
aF0.5
aI0
aF0.5
aI1
aF0.8720434635441844
aF0.5
aI1
aF0.5
aF0.981492089273708
aI1
aF0.8261774425913491
aF0.5
aI1
aF0.5
aF0.5
aF0.5
aF0.5
aF0.5
aI1
aF0.4721991313860912
aF0.8753995128509707
aI1
aF0.9452868015479303
aF0.5
aI1
aF0.995192529980766
aF0.1453503335744683
aI1
aI0
aF0.5
aI1
aF0.5
aF0.5
aI1
aF0.5
aF0.5
aI1
aF0.05493247959594855
aF0.5
aI1
aF0.5
aF0.5
aF0.5
aF0.5
aF0.5
aI1
aF0.5
aF0.5
aI1
aF0.46419069399315066
aF0.5
aI1
aF0.5
aF0.9107075620048077
aI1
aI0
aF0.8762126028016337
aI1
aF0.8636422643098005
aF0.5
aI1
aF0.4885444133133935
aF0.9966160192807961
aI1
aF0.5
aF0.5
aI1
aF0.09331754817988713
aF0.5
aF0.5
aF0.5
aF0.999981575554624
aI1
aF0.5454914454456028
aF0.9932482456206361
aI1
aF0.5
aF0.9926071065751028
aI1
aF0.5494954996445001
aF0.5
aI1
aI0
aF0.20683898056891917
aF0.5481090184443047
aF0.5
aF0.8689025069146471
aF0.5
aF0.10372617432825237
aF0.5
aF0.8422641183320256
aF0.5
aF0.1256527180579492
aF0.5
aF0.5183404547814976
aF0.5
aI1
aF0.5061151664040648
aF0.917129501344605
aF0.5359867820879511
aF0.5
aF0.5
aF0.11668065379040593
aF0.5
aF0.11482928457518421
aF0.03654003827033503
aF0.5
aF0.5
aF0.5
aI0
aF0.5255508678515155
aF0.5
aF0.8409091932584674
aF0.5
aF0.5
aF0.9462294558129333
aF0.5257151666234117
aF0.05529223761075729
aF0.5
aF0.5
aF0.5
aF0.5534945166219001
aF0.5
aI1
aF0.5
aF0.09459016277859644
aF0.5
aF0.9982072720990001
aF0.1518881344829506
aF0.1588826246153554
aF0.5
aF0.8256043977480662
aF0.5
aF0.5866462350319714
aF0.5
aF0.09009103446559441
aI0
aF0.5
aF0.8607963212542983
aF0.5
aF0.8263924194871922
aF2.4179462259541694e-05
aF0.5
aF0.5
aF0.5
aF0.5
aF0.03443058412161348
aF0.018970499938838675
aF0.5
aF0.9089263974375469
aI1
aF0.9099080299088822
aF0.5
aF0.09972109882800906
aF0.5
aF0.5
aF0.5
aF0.5
aF0.5
aF0.008558991904415274
aF0.5
aF0.5
aF0.5
aI0
aF0.5
aF0.5
aF0.04699606948348159
aF0.5
aF0.5
aF0.5
aF0.8330162633791767
aF0.5
aF0.9157961410409827
aI1
aI1
aI1
aI1
aF0.5
aI1
aI1
aI1
aI1
aF0.3596377820725582
aF0.5
aF0.08903465560739399
aF0.5
aF0.5
aF0.6335899016271072
aF0.8319599888923066
aF0.9818229630338768
aI0
aF0.5
aF0.5
aF0.5
aF0.5
aF0.5
aF0.5
aF0.5
aF0.5
aF0.9171894745189961
aI1
aI1
aI1
aI1
aF0.5
aI1
aI1
aI1
aI1
aF0.5
aF0.5
aF0.008190864154246389
aF0.5
aF0.5
aF0.5
aF0.8262073734402552
aF0.5
aI0
aF0.9998189790544807
aF0.5
aF0.9094890122086123
aF0.5
aF0.5
aF0.1817477994757981
aF0.9999873166764478
aF0.9999905135047041
aF0.5
aI1
aI1
aI1
aI1
aF0.5
aI1
aI1
aI1
aI1
aF0.13874660860561527
aF0.9145239298244823
aF0.5
aF0.13617386045804203
aF0.5
aF0.0545449941050063
aF0.5
aF1.0
aI0
aF0.5
aI1
aF0.5
aF0.5
aI1
aF0.5
aF0.5
aI1
aF0.009974261895422916
aI1
aF0.5
aI1
aI1
aF0.5
aI1
aI1
aF0.5
aI1
aF0.5
aI1
aF0.4232041620609962
aF0.5
aI1
aF0.5
aF0.00010332687329097257
aI1
aI0
aI1
aF0.5
aI1
aI1
aF0.5
aI1
aI1
aF0.5
aI1
aF0.5
aF0.5
aF0.5
aF0.5
aF0.5
aF0.5
aF0.5
aF0.5
aF0.5
aI1
aF0.5
aI1
aI1
aF0.5
aI1
aI1
aF0.5
aI1
aF0.5
aI1
aF0.004545948626135096
aF0.5
aI1
aF0.5
aF0.9547939013153589
aI1
aF0.009090906304631927
aI1
aF0.5
aI1
aI1
aF0.5
aI1
aI1
aF0.5
aI1
aF0.2618414664435047
aI1
aF0.45449595855855957
aF0.5
aI1
aF0.04999545450454501
aF0.18010721530239515
aI1
aI0
aF0.046182606987472063
aF0.5
aF0.8435953555439712
aF0.5
aF0.5
aF0.019021947652986607
aF0.025517324055621515
aF0.009089036342591852
aF0.5
aI1
aI1
aI1
aI1
aF0.5
aI1
aI1
aI1
aI1
aF0.14043276564651874
aF0.00626314920784956
aF0.5
aF0.06650214272357152
aF0.5
aF0.508428152504216
aF0.5
aF0.8999281886500441
aI0
aF0.5
aF0.5
aF0.9105588611738381
aF0.5
aF0.5
aF0.5
aF0.00812368610842093
aF0.5
aF0.9090172162872179
aI1
aI1
aI1
aI1
aF0.5
aI1
aI1
aI1
aI1
aF0.05253432472355268
aF0.5
aF0.49460436005396746
aF0.5
aF0.5
aF0.04549999999545451
aF0.0
aF0.0
aI0
aF0.15015701030080486
aF0.05581208712970742
aF0.5
aF0.17006066728759894
aF0.5
aF0.010826930702513698
aF0.5
aF0.9997567568823512
aF0.5
aI1
aI1
aI1
aI1
aF0.5
aI1
aI1
aI1
aI1
aF0.5
aF0.1044407129647999
aF0.5
aF0.012650807983449572
aF0.004504995454954995
aF0.5
aF0.5
aF0.5
aI0
aF0.8450172000670048
aF0.24948243996085506
aF0.5
aF0.9347723082420164
aF0.5
aF0.9422487049804716
aF0.5
aF0.9431164226018387
aF0.5
aF0.10254631662896985
aF0.5
aF0.953350810034819
aF0.5
aI1
aF0.46315876468030637
aF0.30195753697650385
aF0.9421827069141808
aF0.5
aF0.5
aF0.9253409209425141
aF0.5
aF0.2870514887749255
aF0.02783592681382177
aF0.5
aF0.5
aF0.5
aI0
aF0.6782301455966799
aF0.5
aF0.9835181324628678
aF0.5
aF0.5
aF0.9508640314504007
aF0.7907617524543339
aF0.9950449762427152
aF0.5
aF0.5
aF0.5
aF0.9517485843262964
aF0.5
aI1
aF0.5
aF0.2338117159474533
aF0.5
aF0.9959444686460595
aF0.8089834542501222
aF0.18865550852913926
aF0.5
aF0.8961678756807743
aF0.5
aF0.99594999994568
aF0.5
aF0.955004086089141
aI0
aF0.5
aF0.16609870614642452
aF0.5
aF0.9886033293587325
aF0.8394713792980392
aF0.5
aF0.5
aF0.5
aF0.5
aF0.07402750099852323
aF0.09094511537756944
aF0.5
aF0.04101880028360272
aI1
aF0.09082068391108711
aF0.5
aF0.905540282186504
aF0.5
aF0.5
aF0.5
aF0.5
aF0.5
aF0.9010418026290287
aF0.5
aF0.5
aF0.5
aI0
aF0.9957291142924453
aI1
aF0.9074498812903721
aF0.5
aI1
aF0.9473959646398484
aF0.9955911872095399
aI1
aF0.5
aF0.5
aI1
aF0.5407883933151206
aF0.5
aF0.5
aF0.5
aF0.9962739277801522
aI1
aF0.5495005408631127
aF0.9874994182334488
aI1
aF0.5
aF0.5945838184568357
aI1
aF0.5499983183440564
aF0.5
aI1
aI0
aF0.5
aI1
aF0.5418943498065749
aF0.5
aI1
aF0.5
aF0.9991504535036692
aI1
aF0.5057133355185832
aF0.5
aI1
aF0.5
aF0.5
aF0.5
aF0.5
aF0.5
aI1
aF0.9999995499995
aF0.49301889495597373
aI1
aF0.4947757337290861
aF0.5
aI1
aF0.9995454995004995
aF0.0587659169851481
aI1
aI0
aF0.9991587118813702
aI1
aF0.5
aF0.998412979359603
aI1
aF0.9508263515267049
aF0.5
aI1
aF0.5
aF0.9995562689033273
aI1
aF0.4505072378673855
aF0.5
aF0.5
aF0.009090990000099983
aF0.950499996039995
aI1
aF0.5
aF0.5
aI1
aF0.5
aF0.991855405400419
aI1
aF0.5
aF0.5
aI1
aI0
aF0.5
aF0.5226336472886638
aF0.5
aF0.9393805040818723
aF0.08272040694663385
aF0.5
aF0.5
aF0.5
aF0.5
aF0.5623720124547038
aF0.8887810670624112
aF0.5
aF0.05358613012205038
aI1
aF0.08149999100363992
aF0.5
aF0.49058955081416666
aF0.5
aF0.5
aF0.5
aF0.5
aF0.5
aF8.207109090081017e-05
aF0.5
aF0.5
aF0.5
aI0
aF0.4794791204083909
aF0.5329711932432182
aF0.5
aF0.9489706831175813
aF0.5
aF0.5089922978902826
aF0.5
aF0.5449999599094959
aF0.5
aF0.5731167981475533
aF0.5
aF0.5453640638162961
aF0.5
aI1
aF0.5
aF0.4907512033833393
aF0.49999995045045
aF0.5
aF0.5
aF0.08332760928969019
aF0.5
aF0.18106380981278258
aF0.9099009099901
aF0.5
aF0.5
aF0.5
aI0
aI0
aI0
aI0
aI0
aI0
aI0
aI0
aI0
aI0
aI0
aI0
aI0
aI0
aI1
aI0
aI0
aI0
aI0
aI0
aI0
aI0
aI0
aI0
aI0
aI0
aI0
aF0.5
aF0.5
aF0.5
aF0.6066696733138948
aF0.5
aF0.5
aF0.5
aF0.8097965289777659
aF0.5
aF0.9130649722567878
aF0.5
aF0.5
aF0.5
aF0.5
aI1
aF0.5
aF0.5
aF0.5
aF0.927012363006447
aF0.8824744316122406
aF0.5
aF0.5718498397866898
aF0.5
aF0.5
aF0.5860354274755194
aF0.10740577015135955
aF0.9999927091008166
aI0
aF0.5
aI1
aF0.5
aF0.5
aI1
aF0.5
aF0.5
aI1
aF0.8343009748686133
aF0.5
aI1
aF0.5
aF0.5
aF0.5
aF0.5
aF0.5
aI1
aF0.5
aF0.5
aI1
aF0.17078958750353546
aF0.5
aI1
aF0.5
aF0.9409717285357694
aI1
aI0
aF0.32196507370061167
aF0.5
aF0.5571519291830571
aF0.5
aF0.5
aF0.5450877330421278
aF0.9927822108941111
aF0.9999988097616594
aF0.5
aF0.5
aF0.5
aF0.9991720887541397
aF0.5
aI1
aF0.5
aF0.9917699898365743
aF0.5
aF1.0
aF0.9587575751160663
aF0.954641854104065
aF0.5
aF0.5382280480256539
aF0.5
aF0.5049500450000127
aF0.5
aF1.0
aI0
aF0.5
aI1
aF0.5
aF0.5
aI1
aF0.5
aF0.5
aI1
aF0.5405549081732268
aI1
aF0.5
aI1
aI1
aF0.5
aI1
aI1
aF0.5
aI1
aF0.5
aI1
aF0.540592129685227
aF0.5
aI1
aF0.5
aF0.5018686516802617
aI1
aI0
aF0.5
aF0.5
aF0.5
aF0.5
aF0.5
aF0.5
aF0.5
aF0.5
aF0.5
aI1
aF0.5
aI1
aI1
aF0.5
aI1
aI1
aF0.5
aI1
aF0.5
aF0.5
aF0.5
aF0.5
aF0.5
aF0.5
aF0.5
aF0.5
aI0
aF0.5
aI1
aF0.9185448980707742
aF0.5
aI1
aF0.5
aF0.9959536444763308
aI1
aF0.95090004546337
aI1
aF0.5
aI1
aI1
aF0.5
aI1
aI1
aF0.5
aI1
aF0.953725566236558
aI1
aF0.45864549509000935
aF0.5
aI1
aF0.5
aF0.91899181891737
aI1
aI0
aF0.2036906730688612
aF0.5
aF0.5925157637467381
aF0.5
aF0.5
aF0.5928136325214346
aF0.772218018694945
aF0.17913258802082044
aF0.5
aF0.5
aF0.5
aF0.2699520421054289
aF0.5
aI1
aF0.5
aF0.7478936955072596
aF0.5
aF0.9189026264726363
aF0.9912678416372187
aF0.9143829800461818
aF0.5
aF0.9128435993131045
aF0.5
aF0.5536400984838459
aF0.5
aF0.9902798902906389
aI0
aF0.5
aI1
aF0.546006054717588
aF0.5
aI1
aF0.5
aF0.8927100239986256
aI1
aF0.9000822694918093
aF0.5
aI1
aF0.5
aF0.5
aF0.5
aF0.5
aF0.5
aI1
aF0.09900909000099911
aF0.9916652638072194
aI1
aF0.49683651706413096
aF0.5
aI1
aF0.5045454545049955
aF0.999009000091
aI1
aI0
aF0.5851370232810649
aF0.9531947945106258
aF0.5
aF0.9180405089648043
aF0.5
aF0.99999910810819
aF0.5
aF0.9990999000091774
aF0.5
aF0.9018115398140808
aF0.5
aF0.999901891989991
aF0.5
aI1
aF0.09099990090099996
aF0.9009909999999991
aF0.0
aF0.5
aF0.5
aF0.1404544995562137
aF0.5
aF0.09994951317443002
aF0.0004999999549545444
aF0.5
aF0.5
aF0.5
aI0
aF0.5
aF0.5
aF0.5
aF0.5
aF0.5
aF0.5
aF0.5
aF0.5
aF0.9989022791576929
aI1
aI1
aI1
aI1
aF0.5
aI1
aI1
aI1
aI1
aF0.5
aF0.5
aF0.8959313533071211
aF0.5
aF0.5
aF0.5
aF0.009000859834712577
aF0.5
aI0
aF0.5
aI1
aF0.5
aF0.5
aI1
aF0.5
aF0.5
aI1
aF0.5
aI1
aF0.5
aI1
aI1
aF0.5
aI1
aI1
aF0.5
aI1
aF0.5
aI1
aF0.5
aF0.5
aI1
aF0.5
aF0.5
aI1
aI0
aF0.5
aF0.5
aF0.9509385336432912
aF0.5
aF0.5
aF0.5
aF0.9919802425675555
aF0.5
aF0.5000360454365113
aI1
aI1
aI1
aI1
aF0.5
aI1
aI1
aI1
aI1
aF0.23344423637171552
aF0.5
aF0.5530591072611237
aF0.5
aF0.5
aF0.5049995000045044
aF0.1898290720899981
aF1.0
aI0
aF0.5
aI1
aF0.5
aF0.5
aI1
aF0.5
aF0.5
aI1
aF0.5
aF0.5
aF0.5
aF0.5
aF0.5
aF0.5
aF0.5
aF0.5
aF0.5
aF0.5
aF0.5
aI1
aF0.5
aF0.5
aI1
aF0.5
aF0.5
aI1
aI0
aI1
aF0.5
aI1
aI1
aF0.5
aI1
aI1
aF0.5
aI1
aF0.5
aF0.5
aF0.5
aF0.5
aF0.5
aF0.5
aF0.5
aF0.5
aF0.5
aI1
aF0.5
aI1
aI1
aF0.5
aI1
aI1
aF0.5
aI1
aF0.5
aI1
aF0.5
aF0.5
aI1
aF0.5
aF0.5
aI1
aF0.4954549545499505
aF0.5
aF0.5
aF0.5
aF0.5
aF0.5
aF0.5
aF0.5
aF0.5
aF0.5
aF0.5
aI1
aF0.04500000004950494
aF0.5
aI1
aF0.5
aF0.09099909999099998
aI1
aI0
aF0.5
aF0.5
aF0.8297668390342239
aF0.5
aF0.5
aF0.5
aF0.9073672138725828
aF0.5
aF0.9999900999090091
aI1
aI1
aI1
aI1
aF0.5
aI1
aI1
aI1
aI1
aF0.8771390259372218
aF0.5
aF0.9868558550546287
aF0.5
aF0.5
aF0.999954504500005
aF0.09082008091890914
aF0.09999099999000893
aI0
aF0.5
aI1
aF0.5
aF0.5
aI1
aF0.5
aF0.5
aI1
aF0.0
aI1
aF0.5
aI1
aI1
aF0.5
aI1
aI1
aF0.5
aI1
aF0.5
aI1
aF0.49504950049500046
aF0.5
aI1
aF0.5
aF0.0
aI1
aI0
aF0.9999991895481456
aF0.5
aF1.0
aF0.5
aF0.5
aF1.0
aF0.9910891721628989
aF0.9990999990990999
aF0.5
aI1
aI1
aI1
aI1
aF0.5
aI1
aI1
aI1
aI1
aF0.955003568369356
aF0.954999549549505
aF0.5
aF0.954504504999995
aF0.5
aF1.0
aF0.5
aF1.0
aI0
aF0.9607909894813631
aF0.5
aF0.9659104182633466
aF0.5
aF0.5
aF0.906187761553672
aF0.5985792800205039
aF0.9999999898275234
aF0.5
aF0.5
aF0.5
aF0.9999969030976193
aF0.5
aI1
aF0.5
aF0.9181080988839296
aF0.5
aF1.0
aF0.6232816890965684
aF0.9999919703125261
aF0.5
aF0.9095823020672771
aF0.5
aF0.5455408644942382
aF0.5
aF1.0
aI0
aF0.5
aI1
aF0.96307161238267
aF0.5
aI1
aF0.5
aF0.5540556558243408
aI1
aF0.16390793716651464
aF0.5
aI1
aF0.5
aF0.5
aF0.5
aF0.5
aF0.5
aI1
aF1.0
aF0.9556510613114684
aI1
aF0.5082309544376589
aF0.5
aI1
aF0.9504545499999996
aF0.5054490950585411
aI1
aI0
aF0.17788509904043026
aF0.08936296831310964
aF0.5
aF0.9890435403628045
aF0.5
aF0.5936411289154135
aF0.5
aF0.14450008649045543
aF0.5
aF0.0023986121224480045
aF0.5
aF0.9999909981911979
aF0.5
aI1
aF9.000009990990892e-05
aF0.9999999509085553
aF0.45495045454950006
aF0.5
aF0.5
aF0.9189099100549248
aF0.5
aF0.9989645906201171
aF0.99900099999
aF0.5
aF0.5
aF0.5
aI0
aF0.5
aI1
aF0.9999396857041777
aF0.5
aI1
aF0.5
aF0.992300147620774
aI1
aF0.9999909991089101
aI1
aF0.5
aI1
aI1
aF0.5
aI1
aI1
aF0.5
aI1
aF0.8893245999440311
aI1
aF0.5450485600436901
aF0.5
aI1
aF0.5
aF0.4600404505386568
aI1
aI0
aF0.5
aF0.5
aF0.5
aF0.5
aF0.5
aF0.5
aF0.5
aF0.5
aF0.990090009999001
aI1
aF0.5
aI1
aI1
aF0.5
aI1
aI1
aF0.5
aI1
aF0.5
aF0.5
aF0.49504500004995494
aF0.5
aF0.5
aF0.5
aF0.49504995004995
aF0.5
aI0
aF0.9996269957615125
aI1
aF0.5949947201513335
aF0.5
aI1
aF0.9549999549500046
aF1.0
aI1
aF0.5
aI1
aF0.5
aI1
aI1
aF0.5
aI1
aI1
aF0.5
aI1
aF0.9918554054009081
aI1
aF0.5
aF0.999545495495495
aI1
aF0.5
aF0.5
aI1
aI0
aF0.21691936323085964
aF0.982817188444078
aF0.5
aF0.225032277746124
aF0.5
aF0.13954957384666622
aF0.5
aF0.909999900999901
aF0.5
aF0.0556930334334752
aF0.5
aF0.5319050499807516
aF0.5
aI1
aF0.049545000045049525
aF0.8190909108010462
aF0.0
aF0.5
aF0.5
aF0.9999189018002708
aF0.5
aF0.9999018100793898
aF0.999909900900909
aF0.5
aF0.5
aF0.5
aI0
aF0.9991054236731789
aI1
aF0.9594872190742899
aF0.5
aI1
aF0.5454995450499955
aF0.9999180278370116
aI1
aF0.5
aF0.5
aI1
aF0.954995450000495
aF0.5
aF0.5
aF0.5
aF0.9000909009909901
aI1
aF1.0
aF1.0
aI1
aF0.5
aF1.0
aI1
aF1.0
aF0.5
aI1
aI0
aI0
aI0
aI0
aI0
aI0
aI0
aI0
aI0
aI0
aI0
aI0
aI0
aI0
aI1
aI0
aI0
aI0
aI0
aI0
aI0
aI0
aI0
aI0
aI0
aI0
aI0
aF0.5
aF0.39970096089067464
aF0.9748629955596171
aF0.5
aF0.35705209536310595
aF0.5
aF0.9191229448932585
aF0.5
aF0.19859132448411465
aF0.5
aF0.8981786897527302
aF0.5
aF0.7767380146063557
aF0.5
aI1
aF0.13184924048817648
aF0.9846284717440265
aF0.9269758920618523
aF0.5
aF0.5
aF0.97101082795082
aF0.5
aF0.15485760890094047
aF0.09008875770994684
aF0.5
aF0.5
aF0.5
aI0
aF0.9016127655959609
aF0.5
aF0.4418593250027436
aF0.5
aF0.5
aF0.9978107899810383
aF0.9167089512340705
aF0.9093024711812108
aF0.5
aF0.5
aF0.5
aF0.9947214420360553
aF0.5
aI1
aF0.5
aF0.9916032193513757
aF0.5
aF0.5005409036410403
aF0.01990771030058401
aF0.40591271100276644
aF0.5
aF0.8110757386249744
aF0.5
aF0.8208829063972162
aF0.5
aF0.09010036244335407
aI0
aF0.5
aF0.5621612786079095
aI0
aF0.06160810234331571
aF0.5139746469361095
aI0
aF0.5
aF0.5
aI0
aF0.9239714733637654
aF0.9992635446700907
aI0
aF0.917720218154472
aI1
aI0
aF0.5
aF1.0
aI0
aF0.5
aF0.5
aI0
aF0.5
aF0.4201854580253579
aI0
aF0.5
aF0.5
aF0.5
aF0.8368524728700091
aI1
aF0.865244034609828
aF0.5
aI1
aF0.9014450313619946
aF0.9181593089076834
aI1
aF0.5
aF0.5
aI1
aF0.8486672620297038
aF0.5
aF0.5
aF0.5
aF0.09187065677106054
aI1
aF0.45901004085459995
aF0.9261887799150144
aI1
aF0.5
aF0.9999999999925405
aI1
aF0.18910072009078305
aF0.5
aI1
aI0
aF0.5
aI1
aF0.4644789322192629
aF0.5
aI1
aF0.5
aF0.9149858374876984
aI1
aF0.460000404456305
aF0.5
aI1
aF0.5
aF0.5
aF0.5
aF0.5
aF0.5
aI1
aF0.5
aF0.9991899122681157
aI1
aF0.9099902520136653
aF0.5
aI1
aF1.0
aF0.9999999991899992
aI1
aI0
aF0.9032470162864253
aI1
aI0
aF0.9253666724551275
aI1
aI0
aF0.5
aI1
aI0
aF0.18366723000731666
aI1
aI0
aF0.5
aF0.5
aI0
aF0.9999902797326967
aI1
aI0
aF0.5
aI1
aI0
aF0.9180999910809982
aI1
aI0
aF0.5
aI1
aF0.5
aF0.5
aF0.1207151226555345
aF0.5
aF0.32119606733442896
aF0.2590100268431056
aF0.5
aF0.5
aF0.5
aF0.5
aF0.9588187979487193
aF0.5920883434687808
aF0.5
aF0.9180468034178945
aI1
aF0.5049175955951083
aF0.5
aF0.54998933359599
aF0.5
aI0
aI0
aI0
aI0
aI0
aI0
aI0
aI0
aF0.5
aF0.18698938352355376
aF0.45698325106261267
aF0.5
aF0.010063516296776334
aF0.5
aF0.9986222008777998
aF0.5
aF0.4950085584167642
aF0.5
aF0.9898983106157543
aF0.5
aF0.9995949508681846
aF0.5
aI1
aF0.5499504954545495
aF0.999901807226553
aF0.4999549954950005
aF0.5
aI0
aI0
aI0
aI0
aI0
aI0
aI0
aI0
aF0.5
aF0.5
aF0.5
aI0
aF0.5
aF0.0900495468004956
aI0
aF0.5
aF0.5
aI0
aF0.5
aF0.10008180001899103
aI0
aF0.999909090090999
aI1
aI0
aF0.5
aF0.5
aI0
aI0
aI0
aF0.5
aI0
aI0
aF0.5
aI0
aI0
aF0.5
aF0.10594400410731586
aF0.5
aF0.8343343523455794
aF0.5
aF0.5
aF0.8440570608088541
aF0.9103023063663306
aF0.01987542997074146
aF0.5
aI1
aI1
aI1
aI1
aF0.5
aI1
aI1
aI1
aI1
aF0.9120849929891056
aF0.8608787095272645
aF0.5
aF0.908029899714358
aF0.5
aF0.8278292693846693
aF0.5
aF0.9010732905834237
aI0
aF0.5
aF0.5
aF0.9180924350130676
aF0.5
aF0.5
aF0.5
aF0.1487213345320465
aF0.5
aF0.9999999998360526
aI1
aI1
aI1
aI1
aF0.5
aI1
aI1
aI1
aI1
aF0.814508594851944
aF0.5
aF0.009009000892802446
aF0.5
aF0.5
aF0.09009909990990095
aF0.9090040913639514
aF0.4500045004549955
aI0
aF0.9904916267980309
aF0.9992536178097624
aI0
aF0.9946359620352427
aF0.5
aI0
aF0.5
aF1.0
aI0
aI1
aI1
aI1
aI1
aF0.5
aI1
aI1
aI1
aI1
aF0.5
aF0.9917919425653146
aI0
aF0.08108262027841273
aF0.9900909000991
aI0
aF0.5
aF0.5
aF0.5
aF0.5
aI1
aF0.9171843528458127
aF0.5
aI1
aF0.5
aF0.9985094713425081
aI1
aF0.90099099990091
aI1
aF0.5
aI1
aI1
aF0.5
aI1
aI1
aF0.5
aI1
aF0.9173629346371931
aI1
aF0.09812610254799636
aF0.5
aI1
aF0.9099000900091
aF0.9999918834508061
aI1
aI0
aI1
aF0.5
aI1
aI1
aF0.5
aI1
aI1
aF0.5
aI1
aF0.5
aF0.5
aF0.5
aF0.5
aF0.5
aF0.5
aF0.5
aF0.5
aF0.5
aI1
aF0.5
aI1
aI1
aF0.5
aI1
aI1
aF0.5
aI1
aF0.9982160193459246
aI1
aI0
aF0.5
aI1
aI0
aF0.9991809918173877
aI1
aI0
aI1
aF0.5
aI1
aI1
aF0.5
aI1
aI1
aF0.5
aI1
aF0.9172007208836113
aI1
aI0
aF0.9090009009909
aI1
aI0
aF0.5
aI1
aF0.5
aF0.017312587038408905
aF0.0007875091443518287
aF0.5
aF0.0017869538667888603
aF0.5
aF0.009900729117027579
aF0.5
aF0.0009908911087542025
aF0.5
aI1
aI1
aI1
aI1
aF0.5
aI1
aI1
aI1
aI1
aI0
aI0
aI0
aI0
aI0
aI0
aI0
aI0
aF0.5
aF0.1726932231430479
aF0.5
aF0.1899180171099989
aF0.5
aF0.5
aF0.09999999999998999
aF0.9100621721069209
aF0.0
aF0.5
aI1
aI1
aI1
aI1
aF0.5
aI1
aI1
aI1
aI1
aI0
aI0
aI0
aI0
aI0
aI0
aI0
aI0
aF0.5
aF0.5
aF0.00819994414971967
aI0
aF0.41494182147000924
aF0.49500004545499543
aI0
aF0.5
aF0.5
aI0
aI1
aI1
aI1
aI1
aF0.5
aI1
aI1
aI1
aI1
aI0
aI0
aF0.5
aI0
aI0
aF0.5
aI0
aI0
aF0.5
aF0.5
aF0.9999644533818014
aF0.5
aF0.5184828357073314
aF0.9999986488203897
aF0.5
aF0.5
aF0.5
aF0.5
aF0.9012587159630071
aF0.9182587954064014
aF0.5
aF0.17132232462926955
aI1
aF0.09045504009238686
aF0.5
aF0.999585594504967
aF0.5
aF0.5
aF0.5
aF0.5
aF0.5
aF0.9099867778544884
aF0.5
aF0.5
aF0.5
aI0
aF0.660455455086024
aF0.6318429577718283
aF0.5
aF0.9544933647127223
aF0.5
aF0.9464004589924752
aF0.5
aF0.5909366202033592
aF0.5
aF0.544561737219642
aF0.5
aF0.5
aF0.5
aI1
aF0.5
aF0.9950032476987382
aF0.549999549504545
aF0.5
aF0.5
aF0.10791739075345386
aF0.5
aF0.9008225100823484
aF0.9900990009091
aF0.5
aF0.5
aF0.5
aI0
aF0.5
aF0.5
aI0
aF0.5
aF0.5049868841737514
aI0
aF0.5
aF0.5
aI0
aF0.5
aF0.9091809911071801
aI0
aF0.9089112699499626
aI1
aI0
aF0.5
aF0.5
aI0
aF0.5
aF0.5
aI0
aF0.5
aF0.5
aI0
aF0.5
aF0.5
aF0.5
aF0.9902715579000748
aI1
aF0.5
aF0.54882369434089
aI1
aF0.9990585504426376
aF0.5
aI1
aF0.5
aF0.9045748044434248
aI1
aF0.45454509972647006
aF0.5
aF0.5
aF0.0004500049999950047
aF0.9585991980082548
aI1
aF0.5
aF0.5
aI1
aF0.5
aF1.0
aI1
aF0.5
aF0.5
aI1
aI0
aF0.9996237112067498
aI1
aF0.5046211114741229
aF0.5
aI1
aF0.9995049950045496
aF0.999959446004851
aI1
aF0.5
aF0.5
aI1
aF0.5
aF0.5
aF0.5
aF0.5
aF0.999999995004995
aI1
aF0.5
aF1.0
aI1
aF0.5
aF1.0
aI1
aF1.0
aF0.5
aI1
aI0
aF0.5
aI1
aI0
aF0.13559499990599355
aI1
aI0
aF0.5
aI1
aI0
aF0.10402726412978658
aI1
aI0
aF0.049504504999995036
aF0.5
aI0
aF0.5
aI1
aI0
aF0.5
aI1
aI0
aF0.5
aI1
aI0
aF0.5
aI1
aF0.5
aF0.5
aF0.5
aF0.5
aF0.5
aF0.8280827198919092
aF0.5
aF0.5
aF0.5
aF0.5
aF0.5
aF0.9861686652239109
aF0.5
aF0.13639676007408041
aI1
aF0.5
aF0.5
aF0.5
aF0.5
aI0
aI0
aI0
aI0
aI0
aI0
aI0
aI0
aF0.5
aF0.5
aF0.08230533518329586
aF0.5
aF0.9494393907650468
aF0.09990900090989996
aF0.5
aF0.5
aF0.5
aF0.5
aF0.5085945958465405
aF0.9950454999545001
aF0.5
aF0.9500000004950451
aI1
aF0.5
aF0.5
aF0.5
aF0.5
aI0
aI0
aI0
aI0
aI0
aI0
aI0
aI0
aF0.5
aI0
aI0
aF0.5
aI0
aI0
aF0.5
aI0
aI0
aF0.5
aI0
aI0
aF0.5
aI0
aI1
aF0.5
aI0
aI0
aF0.5
aF0.5
aF0.5
aF0.5
aF0.5
aF0.5
aF0.5
aF0.5
aF0.5
aF0.5
aF0.5
aF0.5
aF0.9160264583265619
aF0.5
aF0.5
aF0.5
aF0.6110025494233022
aF0.5
aF0.19466117345976353
aF0.5
aF0.5
aF0.5
aF0.5
aI1
aF0.5
aF0.5
aF0.5
aF0.918935656753611
aF0.9741324621489241
aF0.5
aF0.9107063121356168
aF0.5
aF0.5
aF0.17299579523431086
aF0.8384880162939328
aF0.9990958155092511
aI0
aF0.5
aF0.5
aF0.5
aF0.5
aF0.5
aF0.5
aF0.5
aF0.5
aF0.4717378725108931
aF0.5
aF0.5
aF0.5
aF0.5
aI1
aF0.5
aF0.5
aF0.5
aF0.5
aF0.5
aF0.5
aF0.9025314492873305
aF0.5
aF0.5
aF0.5
aF0.9579292949154574
aF0.5
aI0
aF0.7315020714360663
aF0.5
aF0.7765430455698772
aF0.5
aF0.5
aF0.9076221452040142
aF0.9999996415380544
aF0.9999999999125082
aF0.5
aF0.5
aF0.5
aF0.9453825490068521
aF0.5
aI1
aF0.5
aF0.9999621690243946
aF0.5
aF0.9949604815440622
aF0.9027261171901004
aF0.5301214749027041
aF0.5
aF0.1018119578360106
aF0.5
aF0.10883771370279804
aF0.5
aF1.0
aI0
aF0.5
aI1
aF0.5
aI1
aF0.5
aI1
aF0.5
aI1
aF0.2003341844521035
aF0.5
aI1
aF0.5
aI1
aF0.5
aI1
aF0.5
aI1
aF0.5
aF0.5
aI1
aF0.00910518448363462
aI1
aF0.5
aI1
aF0.910777464344587
aI1
aI0
aF0.5
aI1
aF0.5
aI1
aF0.5
aI1
aF0.5
aI1
aF0.5
aF0.5
aI1
aF0.5
aI1
aF0.5
aI1
aF0.5
aI1
aF0.5
aF0.5
aI1
aF0.5
aI1
aF0.5
aI1
aF0.5
aI1
aI0
aF0.5
aI1
aF0.08920720100781647
aI1
aF0.5
aI1
aF0.9984514673922507
aI1
aF0.09135000147698635
aF0.5
aI1
aF0.5
aI1
aF0.5
aI1
aF0.5
aI1
aF0.49500049504955
aF0.254774150162399
aI1
aF0.09900090999990085
aI1
aF0.5
aI1
aF0.9999999980920907
aI1
aI0
aF0.24049288266515975
aF0.5
aF0.2543659518915953
aF0.5
aF0.5
aF0.17245474406214767
aF0.9088945716039791
aF0.9179347565468072
aF0.5
aF0.5
aF0.5
aF0.9979377821974652
aF0.5
aI1
aF0.5
aF0.9959122582316254
aF0.5
aF1.0
aF0.02646803491834729
aF0.8101614498608443
aF0.5
aF0.017829161838101695
aF0.5
aF0.9999099834523517
aF0.5
aF0.49541238551370337
aI0
aF0.5
aF0.5
aF0.17991908737017093
aF0.5
aF0.5
aF0.5
aF0.5816005385311322
aF0.5
aF0.18181072908892004
aF0.5
aF0.5
aF0.5
aF0.5
aI1
aF0.5
aF0.5
aF0.5
aF1.0
aF0.0024670545381292354
aF0.5
aF0.09009900181718111
aF0.5
aF0.5
aF0.09999909090909997
aF0.954544198451593
aF0.4950450499500005
aI0
aF0.25140804388280646
aF0.01889913313528699
aF0.5
aF0.01699686861147262
aF0.5
aF0.0909971466495485
aF0.5
aF0.9189910008910809
aF0.5
aF0.9974473586211053
aF0.5
aF0.009999990999009903
aF0.5
aI1
aF0.0
aF0.9999991899010972
aF0.9909990000990991
aF0.5
aF0.5
aF0.8190999009098201
aF0.5
aF0.009810900899371908
aF0.0
aF0.5
aF0.5
aF0.5
aI0
aF0.5
aF0.5
aF0.5
aF0.5
aF0.5
aF0.5
aF0.5
aF0.5
aF0.09910798080423051
aI1
aI1
aI1
aI1
aF0.5
aI1
aI1
aI1
aI1
aF0.5
aF0.5
aF0.8273011442919043
aF0.5
aF0.5
aF0.5
aF0.908524706926284
aF0.5
aI0
aF0.5
aF0.5
aF0.5
aF0.5
aF0.5
aF0.5
aF0.5
aF0.5
aF0.5
aI1
aI1
aI1
aI1
aF0.5
aI1
aI1
aI1
aI1
aF0.5
aF0.5
aF0.5
aF0.5
aF0.5
aF0.5
aF0.5
aF0.5
aI0
aF0.5
aF0.5
aF0.10001352805659991
aF0.5
aF0.5
aF0.5
aF0.9999999877039389
aF0.5
aF0.09909990999009999
aI1
aI1
aI1
aI1
aF0.5
aI1
aI1
aI1
aI1
aF0.9020333915186864
aF0.5
aF0.00991791188109016
aF0.5
aF0.5
aF0.900099099900901
aF0.9999999981189991
aF1.0
aI0
aF0.5
aI1
aF0.5
aI1
aF0.5
aI1
aF0.5
aI1
aF0.5
aI1
aF0.5
aI1
aF0.5
aF0.5
aF0.5
aI1
aF0.5
aI1
aF0.5
aI1
aF0.5
aI1
aF0.5
aI1
aF0.5
aI1
aI0
aI1
aF0.5
aI1
aF0.5
aF0.5
aF0.5
aI1
aF0.5
aI1
aF0.5
aF0.5
aF0.5
aF0.5
aF0.5
aF0.5
aF0.5
aF0.5
aF0.5
aI1
aF0.5
aI1
aF0.5
aF0.5
aF0.5
aI1
aF0.5
aI1
aF0.5
aI1
aF0.5
aI1
aF0.5
aI1
aF0.5
aI1
aF0.0
aI1
aF0.5
aI1
aF0.5
aF0.5
aF0.5
aI1
aF0.5
aI1
aF0.5
aI1
aF0.0
aI1
aF0.5
aI1
aF0.009999999990000896
aI1
aI0
aF0.5
aF0.5
aF0.1567202934798495
aF0.5
aF0.5
aF0.5
aF0.9999830292453046
aF0.5
aF0.9999991898183006
aI1
aI1
aI1
aI1
aF0.5
aI1
aI1
aI1
aI1
aF0.0926910792668668
aF0.5
aF0.9090108999642273
aF0.5
aF0.5
aF9.99990090909999e-06
aF0.0998369731268689
aF9.99099900099909e-06
aI0
aF0.5
aF0.5
aF0.5
aF0.5
aF0.5
aF0.5
aF0.5
aF0.5
aF0.90909009099999
aI1
aI1
aI1
aI1
aF0.5
aI1
aI1
aI1
aI1
aF0.5
aF0.5
aF0.0
aF0.5
aF0.5
aF0.5
aF0.0
aF0.5
aI0
aF0.09996998172823912
aF0.5
aF0.9999189180028054
aF0.5
aF0.5
aF0.0009099009909909889
aF1.0
aF1.0
aF0.5
aI1
aI1
aI1
aI1
aF0.5
aI1
aI1
aI1
aI1
aF0.9828810111504585
aF0.9090999000099091
aF0.5
aF0.09900000090009986
aF0.5
aF1.0
aF0.5
aF1.0
aI0
aF0.6246730769410084
aF0.5
aF0.588724494847849
aF0.5
aF0.5
aF0.9855645608618341
aF0.5847882807186267
aF0.5249109798825911
aF0.5
aF0.5
aF0.5
aF0.5434640267395241
aF0.5
aI1
aF0.5
aF0.9143568040958459
aF0.5
aF0.5494595447308579
aF0.23109239914802837
aF0.1456679033555156
aF0.5
aF0.21665383793302162
aF0.5
aF1.0
aF0.5
aF0.999991040536855
aI0
aF0.5
aF0.5
aF0.9873074743409701
aF0.5
aF0.5
aF0.5
aF0.586322494796728
aF0.5
aF0.9504941950076529
aF0.5
aF0.5
aF0.5
aF0.5
aI1
aF0.5
aF0.5
aF0.5
aF0.99954995045455
aF0.9999814385057085
aF0.5
aF0.9918108910712776
aF0.5
aF0.5
aF1.0
aF0.5896089192344287
aF0.9545000045450496
aI0
aF0.9662713579919777
aF0.9741638132702058
aF0.5
aF0.9468260597329785
aF0.5
aF0.99909900090999
aF0.5
aF0.18100818089109083
aF0.5
aF0.8205599448006871
aF0.5
aF0.04951849054511792
aF0.5
aI1
aF0.0
aF0.9017254713322982
aF0.9009000999
aF0.5
aF0.5
aF0.9905094451988619
aF0.5
aF0.5004937930613491
aF0.45045450495004996
aF0.5
aF0.5
aF0.5
aI0
aF0.5
aI1
aF0.5093135660825375
aI1
aF0.5
aI1
aF0.9953298008556918
aI1
aF0.13150310463873938
aF0.5
aI1
aF0.5
aI1
aF0.5
aI1
aF0.5
aI1
aF0.5
aF0.9999116681239129
aI1
aF0.9188191621841608
aI1
aF0.5
aI1
aF0.9999901971287297
aI1
aI0
aF0.5
aI1
aF0.5
aI1
aF0.5
aI1
aF0.5
aI1
aF0.04500450004954998
aF0.5
aI1
aF0.5
aI1
aF0.5
aI1
aF0.5
aI1
aF0.5
aF0.5
aI1
aF0.9909009909990091
aI1
aF0.5
aI1
aF0.90990009900991
aI1
aI0
aF0.999188816536622
aI1
aF0.5405463540045555
aI1
aF0.5
aI1
aF0.9954594500050185
aI1
aF0.5
aF0.5
aI1
aF0.499500499500005
aI1
aF0.5
aI1
aF0.9950004500000005
aI1
aF0.5
aF1.0
aI1
aF0.5
aI1
aF0.5
aI1
aF0.5
aI1
aI0
aF0.17730429036301731
aF0.00417763913068446
aF0.5
aF0.013988013966531432
aF0.5
aF0.9945535972567059
aF0.5
aF0.9094999536143289
aF0.5
aF0.09554371924264304
aF0.5
aF0.10004004545139489
aF0.5
aI1
aF0.004549999500499995
aF0.5446093113777878
aF0.4995049995450045
aF0.5
aF0.5
aF0.05084968143282309
aF0.5
aF0.9998280908109811
aF0.0
aF0.5
aF0.5
aF0.5
aI0
aF0.5705549676078527
aF0.5
aF0.9991049449276527
aF0.5
aF0.5
aF0.9950045049954505
aF0.5494648882680377
aF0.5
aF0.5
aF0.5
aF0.5
aF0.5495450049999545
aF0.5
aI1
aF0.5
aF0.5045004954995455
aF0.5
aF1.0
aF0.013569359421928467
aF4.995454504999944e-05
aF0.5
aF0.9900099999909099
aF0.5
aF1.0
aF0.5
aF0.5
aI0
aI0
aI0
aI0
aI0
aI0
aI0
aI0
aI0
aI0
aI0
aI0
aI0
aI0
aI1
aI0
aI0
aI0
aI0
aI0
aI0
aI0
aI0
aI0
aI0
aI0
aI0
aF0.5
aI1
aI1
aI1
aI1
aI1
aI1
aI1
aI1
aI1
aI1
aI1
aI1
aI1
aF0.5
aI1
aI1
aI1
aI1
aI1
aI1
aI1
aI1
aI1
aI1
aI1
aI1
aI1
aI1
aF0.5
aI1
aI1
aF0.5
aI1
aI1
aF0.5
aI1
aI1
aF0.5
aI1
aI1
aF0.5
aI1
aI1
aF0.5
aI1
aI1
aF0.5
aI1
aI1
aF0.5
aI1
aI1
aF0.5
aI1
aI1
aI1
aI1
aI1
aI1
aI1
aI1
aI1
aI1
aI1
aI1
aI1
aI1
aF0.5
aI1
aI1
aI1
aI1
aI1
aI1
aI1
aI1
aI1
aI1
aI1
aI1
aI1
aI1
aF0.5
aI1
aF0.5
aF0.5
aF0.5
aI1
aF0.5
aI1
aF0.5
aF0.5
aF0.5
aF0.5
aF0.5
aF0.5
aF0.5
aF0.5
aF0.5
aI1
aF0.5
aI1
aF0.5
aF0.5
aF0.5
aI1
aF0.5
aI1
aI1
aF0.5
aI1
aF0.5
aF0.5
aF0.5
aI1
aF0.5
aI1
aF0.5
aF0.5
aF0.5
aF0.5
aF0.5
aF0.5
aF0.5
aF0.5
aF0.5
aI1
aF0.5
aI1
aF0.5
aF0.5
aF0.5
aI1
aF0.5
aI1
aI1
aF0.5
aI1
aF0.5
aF0.5
aF0.5
aI1
aF0.5
aI1
aF0.5
aF0.5
aF0.5
aF0.5
aF0.5
aF0.5
aF0.5
aF0.5
aF0.5
aI1
aF0.5
aI1
aF0.5
aF0.5
aF0.5
aI1
aF0.5
aI1
aI1
aI1
aI1
aI1
aI1
aI1
aI1
aI1
aI1
aI1
aI1
aI1
aI1
aF0.5
aI1
aI1
aI1
aI1
aI1
aI1
aI1
aI1
aI1
aI1
aI1
aI1
aI1
aI1
aF0.5
aI1
aI1
aF0.5
aI1
aI1
aF0.5
aI1
aI1
aF0.5
aI1
aI1
aF0.5
aI1
aI1
aF0.5
aI1
aI1
aF0.5
aI1
aI1
aF0.5
aI1
aI1
aF0.5
aI1
aI1
aI1
aI1
aI1
aI1
aI1
aI1
aI1
aI1
aI1
aI1
aI1
aI1
aF0.5
aI1
aI1
aI1
aI1
aI1
aI1
aI1
aI1
aI1
aI1
aI1
aI1
aI1
aI1
aI1
aI1
aI1
aI1
aI1
aI1
aI1
aI1
aF0.5
aF0.5
aF0.5
aF0.5
aF0.5
aF0.5
aF0.5
aF0.5
aF0.5
aI1
aI1
aI1
aI1
aI1
aI1
aI1
aI1
aI1
aI1
aF0.5
aI1
aI1
aF0.5
aI1
aI1
aF0.5
aI1
aF0.5
aF0.5
aF0.5
aF0.5
aF0.5
aF0.5
aF0.5
aF0.5
aF0.5
aI1
aF0.5
aI1
aI1
aF0.5
aI1
aI1
aF0.5
aI1
aI1
aI1
aI1
aI1
aI1
aI1
aI1
aI1
aI1
aF0.5
aF0.5
aF0.5
aF0.5
aF0.5
aF0.5
aF0.5
aF0.5
aF0.5
aI1
aI1
aI1
aI1
aI1
aI1
aI1
aI1
aI1
aI1
aF0.5
aI1
aF0.5
aF0.5
aF0.5
aI1
aF0.5
aI1
aF0.5
aF0.5
aF0.5
aF0.5
aF0.5
aF0.5
aF0.5
aF0.5
aF0.5
aI1
aF0.5
aI1
aF0.5
aF0.5
aF0.5
aI1
aF0.5
aI1
aF0.5
aF0.5
aF0.5
aF0.5
aF0.5
aF0.5
aF0.5
aF0.5
aF0.5
aF0.5
aF0.5
aF0.5
aF0.5
aF0.5
aF0.5
aF0.5
aF0.5
aF0.5
aF0.5
aF0.5
aF0.5
aF0.5
aF0.5
aF0.5
aF0.5
aF0.5
aI0
aI1
aF0.5
aI1
aF0.5
aF0.5
aF0.5
aI1
aF0.5
aI1
aF0.5
aF0.5
aF0.5
aF0.5
aF0.5
aF0.5
aF0.5
aF0.5
aF0.5
aI1
aF0.5
aI1
aF0.5
aF0.5
aF0.5
aI1
aF0.5
aI1
aI1
aI1
aI1
aI1
aI1
aI1
aI1
aI1
aI1
aF0.5
aF0.5
aF0.5
aF0.5
aF0.5
aF0.5
aF0.5
aF0.5
aF0.5
aI1
aI1
aI1
aI1
aI1
aI1
aI1
aI1
aI1
aI1
aF0.5
aI1
aI1
aF0.5
aI1
aI1
aF0.5
aI1
aF0.5
aF0.5
aF0.5
aF0.5
aF0.5
aF0.5
aF0.5
aF0.5
aF0.5
aI1
aF0.5
aI1
aI1
aF0.5
aI1
aI1
aF0.5
aI1
aI1
aI1
aI1
aI1
aI1
aI1
aI1
aI1
aI1
aF0.5
aF0.5
aF0.5
aF0.5
aF0.5
aF0.5
aF0.5
aF0.5
aF0.5
aI1
aI1
aI1
aI1
aI1
aI1
aI1
aI1
aI1
aI1
aI1
aI1
aI1
aI1
aI1
aI1
aI1
aI1
aI1
aI1
aI1
aI1
aF0.5
aI1
aI1
aI1
aI1
aI1
aI1
aI1
aI1
aI1
aI1
aI1
aI1
aI1
aI1
aF0.5
aI1
aI1
aF0.5
aI1
aI1
aF0.5
aI1
aI1
aF0.5
aI1
aI1
aF0.5
aI1
aI1
aF0.5
aI1
aI1
aF0.5
aI1
aI1
aF0.5
aI1
aI1
aF0.5
aI1
aI1
aI1
aI1
aI1
aI1
aI1
aI1
aI1
aI1
aI1
aI1
aI1
aI1
aF0.5
aI1
aI1
aI1
aI1
aI1
aI1
aI1
aI1
aI1
aI1
aI1
aI1
aI1
aI1
aF0.5
aI1
aF0.5
aF0.5
aF0.5
aI1
aF0.5
aI1
aF0.5
aF0.5
aF0.5
aF0.5
aF0.5
aF0.5
aF0.5
aF0.5
aF0.5
aI1
aF0.5
aI1
aF0.5
aF0.5
aF0.5
aI1
aF0.5
aI1
aI1
aF0.5
aI1
aF0.5
aF0.5
aF0.5
aI1
aF0.5
aI1
aF0.5
aF0.5
aF0.5
aF0.5
aF0.5
aF0.5
aF0.5
aF0.5
aF0.5
aI1
aF0.5
aI1
aF0.5
aF0.5
aF0.5
aI1
aF0.5
aI1
aI1
aF0.5
aI1
aF0.5
aF0.5
aF0.5
aI1
aF0.5
aI1
aF0.5
aF0.5
aF0.5
aF0.5
aF0.5
aF0.5
aF0.5
aF0.5
aF0.5
aI1
aF0.5
aI1
aF0.5
aF0.5
aF0.5
aI1
aF0.5
aI1
aI1
aI1
aI1
aI1
aI1
aI1
aI1
aI1
aI1
aI1
aI1
aI1
aI1
aF0.5
aI1
aI1
aI1
aI1
aI1
aI1
aI1
aI1
aI1
aI1
aI1
aI1
aI1
aI1
aF0.5
aI1
aI1
aF0.5
aI1
aI1
aF0.5
aI1
aI1
aF0.5
aI1
aI1
aF0.5
aI1
aI1
aF0.5
aI1
aI1
aF0.5
aI1
aI1
aF0.5
aI1
aI1
aF0.5
aI1
aI1
aI1
aI1
aI1
aI1
aI1
aI1
aI1
aI1
aI1
aI1
aI1
aI1
aI0
aI1
aI1
aI1
aI1
aI1
aI1
aI1
aI1
aI1
aI1
aI1
aI1
aI1
aF0.2378738406628212
aF0.5
aF0.09732844849997335
aF0.5
aF0.5
aF0.03874811429331254
aF0.8402001522528083
aF0.9985465346066792
aF0.5
aF0.5
aF0.5
aF0.01639632892400822
aF0.5
aI1
aF0.5
aF0.1449659347750819
aF0.5
aF0.09054635441910219
aF0.24597205808312106
aF0.8513137068498937
aF0.5
aF0.8147035861634289
aF0.5
aF0.09002628171731653
aF0.5
aF0.8994452695234095
aI0
aF0.5
aF0.5
aF0.5120326185632764
aF0.5
aF0.5
aF0.5
aF0.16551053201015753
aF0.5
aF0.4591273231029012
aF0.5
aF0.5
aF0.5
aF0.5
aI1
aF0.5
aF0.5
aF0.5
aF0.5000499549995455
aF0.0008993829644250032
aF0.5
aF0.0009002609184043057
aF0.5
aF0.5
aF9.000999009099988e-06
aF0.09099804583986082
aF0.99900099900991
aI0
aF0.11422486454936569
aF0.9083915575233603
aI0
aF0.010264630232696428
aF0.5
aI0
aF0.5
aF1.0
aI0
aF0.9843643285440635
aF0.5
aI0
aF0.5
aI1
aI0
aF0.9918189090360012
aF1.0
aI0
aF0.5
aF0.49619689099235775
aI0
aF0.09859185580909913
aF0.4549995495450045
aI0
aF0.5
aF0.5
aF0.5
aF0.5
aI1
aF0.8987912563147253
aI1
aF0.5
aI1
aF0.994836925568832
aI1
aF4.45950463060345e-05
aF0.5
aI1
aF0.5
aI1
aF0.5
aI1
aF0.5
aI1
aF4.5499500499999436e-07
aF0.10087528637827536
aI1
aF0.00018737118115543677
aI1
aF0.5
aI1
aF0.10882890974466175
aI1
aI0
aF0.5
aI1
aF0.5
aI1
aF0.5
aI1
aF0.5
aI1
aF0.4500004500004545
aF0.5
aI1
aF0.5
aI1
aF0.5
aI1
aF0.5
aI1
aF0.5
aF0.5
aI1
aF0.009900909000099087
aI1
aF0.5
aI1
aF0.0009999099999090984
aI1
aI0
aF0.8943651059311812
aI1
aI0
aI1
aF0.5
aI1
aF0.983708224364053
aI1
aI0
aF0.5
aI1
aI0
aI1
aF0.5
aI1
aF0.99090990099901
aI1
aI0
aF0.17207119614944077
aI1
aI0
aI1
aF0.5
aI1
aF0.5
aI1
aF0.5
aF0.1795745752868717
aF0.0563697268950412
aF0.5
aF0.001587365861090326
aF0.5
aF0.012280864174425657
aF0.5
aF0.9418550625458204
aF0.5
aF0.917061143262928
aF0.5
aF0.9067284042682628
aF0.5
aI1
aF0.45454500454500457
aF0.9545418059904417
aF0.545499545454545
aF0.5
aI0
aI0
aI0
aI0
aI0
aI0
aI0
aI0
aF0.5
aF0.38443046592075614
aF0.5
aF0.9542074511202748
aF0.5
aF0.5
aF0.004504500000495001
aF0.8636287545492994
aF0.454500499995045
aF0.5
aF0.5
aF0.5
aF0.9999950454999545
aF0.5
aI1
aF0.5
aF0.9999950450495
aF0.5
aF1.0
aI0
aI0
aI0
aI0
aI0
aI0
aI0
aI0
aF0.5
aF0.5
aF0.008999918363443382
aI0
aF0.0
aF0.0
aI0
aF0.5
aF0.5
aI0
aF0.9990918170010011
aF9.099900000008991e-05
aI0
aF0.0
aI1
aI0
aF0.5
aF1.0
aI0
aI0
aI0
aF0.5
aI0
aI0
aF0.5
aI0
aI0
aF0.5
aF0.5
aF0.5
aF0.9809652319979106
aF0.5
aF0.5
aF0.5
aF0.9818417038548259
aF0.5
aF0.9900197929800091
aI1
aI1
aI1
aI1
aF0.5
aI1
aI1
aI1
aI1
aF0.16491797477827796
aF0.5
aF0.0
aF0.5
aF0.5
aF0.0
aF0.18153117891956716
aF0.009000900999090095
aI0
aF0.5
aF0.5
aF0.5
aF0.5
aF0.5
aF0.5
aF0.5
aF0.5
aF0.9900099009909009
aI1
aI1
aI1
aI1
aF0.5
aI1
aI1
aI1
aI1
aF0.5
aF0.5
aF0.0
aF0.5
aF0.5
aF0.5
aF0.0
aF0.5
aI0
aF0.9778900764904854
aF0.5
aI0
aF0.5
aF0.5
aI0
aF0.9836363539800281
aF1.0
aI0
aI1
aI1
aI1
aI1
aF0.5
aI1
aI1
aI1
aI1
aF0.08110566270258406
aF0.990990009091
aI0
aF0.0
aF0.5
aI0
aF0.5
aF1.0
aF0.5
aF0.5
aI1
aF0.5
aI1
aF0.5
aI1
aF0.5
aI1
aF0.0
aI1
aF0.5
aI1
aF0.5
aF0.5
aF0.5
aI1
aF0.5
aI1
aF0.5
aI1
aF0.0
aI1
aF0.5
aI1
aF0.09990099900990912
aI1
aI0
aI1
aF0.5
aI1
aF0.5
aF0.5
aF0.5
aI1
aF0.5
aI1
aF0.5
aF0.5
aF0.5
aF0.5
aF0.5
aF0.5
aF0.5
aF0.5
aF0.5
aI1
aF0.5
aI1
aF0.5
aF0.5
aF0.5
aI1
aF0.5
aI1
aF0.5
aI1
aI0
aI1
aF0.5
aI1
aF0.99090909009091
aI1
aI0
aI1
aF0.5
aI1
aF0.5
aF0.5
aI0
aI1
aF0.5
aI1
aF0.09009000900099096
aI1
aI0
aI1
aF0.5
aI1
aF1.0
aI1
aF0.5
aF0.9187192743646774
aF0.5
aF0.9082006272814404
aF0.5
aF0.5
aF0.0
aF0.828100792188107
aF0.990009999001
aF0.5
aI1
aI1
aI1
aI1
aF0.5
aI1
aI1
aI1
aI1
aI0
aI0
aI0
aI0
aI0
aI0
aI0
aI0
aF0.5
aF0.5
aF0.5
aF0.90909909000009
aF0.5
aF0.5
aF0.5
aF0.09090009000090093
aF0.5
aF1.0
aI1
aI1
aI1
aI1
aF0.5
aI1
aI1
aI1
aI1
aI0
aI0
aI0
aI0
aI0
aI0
aI0
aI0
aF0.5
aF0.910800000909981
aF0.9009000000099
aI0
aF0.0
aF0.5
aI0
aF0.5
aF1.0
aI0
aI1
aI1
aI1
aI1
aF0.5
aI1
aI1
aI1
aI1
aI0
aI0
aF0.5
aI0
aI0
aF0.5
aI0
aI0
aF0.5
aF0.5871846640279493
aF0.9996054942336287
aF0.5
aF0.4155488077138864
aF0.5
aF0.5001301715818668
aF0.5
aF0.554073832672634
aF0.5
aF0.5445169181818462
aF0.5
aF0.4982847125666066
aF0.5
aI1
aF0.04995450450454503
aF0.5450414494946947
aF0.5045450049999546
aF0.5
aF0.5
aF0.0010237640206969389
aF0.5
aF0.1296153824037345
aF0.49500045499950457
aF0.5
aF0.5
aF0.5
aI0
aF0.9826109207610686
aF0.5
aF0.9864958926363863
aF0.5
aF0.5
aF0.5454500004549501
aF0.5405454459874319
aF0.9999549504950495
aF0.5
aF0.5
aF0.5
aF0.5
aF0.5
aI1
aF0.5
aF0.5
aF0.5
aF0.5
aF0.9907397020755881
aF0.990090009099091
aF0.5
aF0.009000099000009892
aF0.5
aF1.0
aF0.5
aF1.0
aI0
aF0.5
aF0.8183640657402506
aI0
aF0.09999990900990097
aF0.49999549995495457
aI0
aF0.5
aF0.5
aI0
aF0.008199907227810102
aF0.99000909001
aI0
aF0.0
aI1
aI0
aF0.5
aF1.0
aI0
aF0.5
aF0.5
aI0
aF0.5
aF0.5
aI0
aF0.5
aF0.5
aF0.5
aF0.5978630296820762
aI1
aF0.504958146314848
aI1
aF0.5
aI1
aF0.5536808766883409
aI1
aF0.5
aF0.5
aI1
aF0.499504549950495
aI1
aF0.5
aI1
aF0.99545045499545
aI1
aF0.5
aF1.0
aI1
aF0.5
aI1
aF0.5
aI1
aF0.5
aI1
aI0
aF0.5
aI1
aF0.9950004954500455
aI1
aF0.5
aI1
aF0.5495499954549504
aI1
aF0.5
aF0.5
aI1
aF0.5
aI1
aF0.5
aI1
aF0.5
aI1
aF0.5
aF1.0
aI1
aF1.0
aI1
aF0.5
aI1
aF1.0
aI1
aI0
aF0.10089974711555838
aI1
aI0
aI1
aF0.5
aI1
aF0.5
aI1
aI0
aF0.99909000999901
aI1
aI0
aI1
aF0.5
aI1
aF1.0
aI1
aI0
aF0.5
aI1
aI0
aI1
aF0.5
aI1
aF0.5
aI1
aF0.5
aF0.5
aF0.04914036511199959
aF0.5
aF0.008550535585180943
aF0.0
aF0.5
aF0.5
aF0.5
aF0.5
aF0.4999946458014913
aF0.049545454995450044
aF0.5
aF0.49545499999545495
aI1
aF0.5
aF0.5
aF0.5
aF0.5
aI0
aI0
aI0
aI0
aI0
aI0
aI0
aI0
aF0.5
aF0.41391597879986364
aF0.045045000495004484
aF0.5
aF0.454950049549995
aF0.5
aF0.5
aF0.5
aF0.5
aF0.5
aF0.5
aF0.5
aF0.5
aF0.5
aI1
aF0.5
aF0.5
aF0.5
aF0.5
aI0
aI0
aI0
aI0
aI0
aI0
aI0
aI0
aF0.5
aI0
aI0
aF0.5
aI0
aI0
aF0.5
aI0
aI0
aF0.5
aI0
aI0
aF0.5
aI0
aI1
aF0.5
aI0
aI0
aF0.5
aF0.5
aF0.5
aF0.5
aF0.5
aF0.5
aF0.5
aF0.5
aF0.5
aF0.5
aF0.8338919103498763
aF0.9899089845168525
aF0.5
aF0.8912501057413998
aF0.5
aF0.9102684749199206
aF0.5
aF0.17572351720210233
aF0.5
aF0.98537776544894
aF0.5
aF0.591291201804919
aF0.5
aI1
aF0.9542154866450673
aF0.9188980171147764
aF0.7538506110602505
aF0.5
aF0.5
aF0.5006479295194723
aF0.5
aF0.8996808645308392
aF0.1884927891044335
aF0.5
aF0.5
aF0.5
aI0
aF0.97960651734284
aF0.5
aF0.9463845825308685
aF0.5
aF0.5
aF0.5007704490570197
aF0.8732575549532713
aF0.9998987007021618
aF0.5
aF0.5
aF0.5
aF0.9597130536438264
aF0.5
aI1
aF0.5
aF0.09997496928505079
aF0.5
aF0.9998888323667745
aF0.19854998549239422
aF0.008869032133217351
aF0.5
aF0.8978446806819261
aF0.5
aF0.5000085517623387
aF0.5
aF0.9455091273145038
aI0
aF0.5
aF0.9276992795902468
aF0.5
aF0.5836788285953796
aF0.9999148511961774
aF0.5
aF0.5
aF0.8280500000000001
aF0.5
aF0.9275888979914546
aF0.9999999189878582
aF0.5
aF0.919714064637806
aI1
aF0.18099262810008
aF0.5
aF0.9543626924868176
aF0.5
aF0.5
aF0.5
aF0.5
aF0.5
aF0.549990640008406
aF0.5
aF0.5
aF0.5
aI0
aF0.9999919851640482
aI1
aF0.6050331316953966
aF0.5
aI1
aF0.9087799043478422
aF0.9996473714588476
aI1
aF0.5
aF0.5
aI1
aF0.5534034864168775
aF0.5
aF0.5
aF0.5
aF0.9999999999999089
aI1
aF0.5536085900544152
aF0.226268564355405
aI1
aF0.5
aF0.9634562672503705
aI1
aF0.5000486409176913
aF0.5
aI1
aI0
aF0.5
aI1
aF0.5896493996178906
aF0.5
aI1
aF0.5
aF0.9505772214020309
aI1
aF0.950504756086042
aF0.5
aI1
aF0.5
aF0.5
aF0.5
aF0.5
aF0.5
aI1
aF0.9950454999995004
aF0.9583614753469618
aI1
aF0.5495454986904487
aF0.5
aI1
aF0.5045045004500455
aF0.4586054494598141
aI1
aI0
aF0.9596246223841048
aI1
aF0.5
aF0.9998968352379065
aI1
aF0.5404967688329919
aF0.5
aI1
aF0.5
aF0.9852465671461149
aI1
aF0.9918099983711531
aF0.5
aF0.5
aF0.090090909009099
aF1.0
aI1
aF0.5
aF0.5
aI1
aF0.5
aF0.9999909505936081
aI1
aF0.5
aF0.5
aI1
aI0
aF0.5
aF0.1265943361266565
aF0.5
aF0.2489013374739376
aF0.464129934995739
aF0.5
aI0
aI0
aI0
aF0.9451191782858919
aF0.9090892802503926
aF0.5
aF0.9991709346763139
aI1
aF0.5495454551304897
aI0
aI0
aI0
aF0.5
aF0.5
aF0.5
aF0.5
aF0.14360035708918772
aF0.5
aI0
aI0
aF0.5
aF0.3924829084987891
aF0.9029138494198254
aF0.5
aF0.11275084620689158
aF0.5
aF0.9140883744119859
aI0
aI0
aI0
aF0.8395922984234572
aF0.5
aF0.5495454095466614
aF0.5
aI1
aF0.5045000454999999
aI0
aI0
aI0
aF0.5
aF0.008378084555109171
aF0.5
aF0.8973774148988428
aF0.000909999090909908
aF0.5
aI0
aI0
aF0.5
aF0.5
aF0.5
aF0.5
aF0.5
aF0.09549549464851353
aF0.5
aI0
aI0
aI0
aF0.5
aF0.909990099990901
aF0.5
aF0.990990927188282
aI1
aF0.5
aI0
aI0
aI0
aF0.5
aF0.5
aF0.5
aF0.5
aF0.5
aF0.5
aI0
aI0
aF0.5
aF0.9054396728557893
aF0.5
aF0.9503087020551411
aF0.5
aF0.5
aF0.9991665096640331
aF0.195552217446742
aF0.0933657112913397
aF0.5
aI1
aI1
aI1
aI1
aF0.5
aI1
aI1
aI1
aI1
aF0.3108509376444569
aF0.9059776797244903
aF0.5
aF0.9531719150872028
aF0.5
aF0.5944919036415223
aF0.5
aF0.0590009530554913
aI0
aF0.5
aF0.5
aF0.9991799005113513
aF0.5
aF0.5
aF0.5
aF0.09481607271405551
aF0.5
aF0.09099999990910002
aI1
aI1
aI1
aI1
aF0.5
aI1
aI1
aI1
aI1
aF0.24403284193166352
aF0.5
aF0.5455035178092391
aF0.5
aF0.5
aF0.9950454950045455
aF0.9005049365534961
aF0.04954549995004953
aI0
aF0.992492736940479
aF0.9196736827206381
aF0.5
aF0.9999217393266859
aF0.5
aF0.9540905937674368
aF0.5
aF0.9108108108010802
aF0.5
aI1
aI1
aI1
aI1
aF0.5
aI1
aI1
aI1
aI1
aF0.5
aF0.9945995143154087
aF0.5
aF0.994505936415
aF0.999500000004955
aF0.5
aF0.5
aF0.5
aI0
aF0.5
aI1
aF0.9543562269684409
aF0.5
aI1
aF0.5
aF0.9961711199000792
aI1
aF0.945108140499999
aI1
aF0.5
aI1
aI1
aF0.5
aI1
aI1
aF0.5
aI1
aF0.1768602379936638
aI1
aF0.08689200769229444
aF0.5
aI1
aF0.5499504950000451
aF0.9900002881836714
aI1
aI0
aI1
aF0.5
aI1
aI1
aF0.5
aI1
aI1
aF0.5
aI1
aF0.5
aF0.5
aF0.5
aF0.5
aF0.5
aF0.5
aF0.5
aF0.5
aF0.5
aI1
aF0.5
aI1
aI1
aF0.5
aI1
aI1
aF0.5
aI1
aF0.9992032267019131
aI1
aF0.9499996350941945
aF0.5
aI1
aF0.49999999545049545
aF0.9995868504171987
aI1
aF0.5
aI1
aF0.5
aI1
aI1
aF0.5
aI1
aI1
aF0.5
aI1
aF0.9540917615838859
aI1
aF0.5
aF0.99950045000005
aI1
aF0.5
aF0.5
aI1
aI0
aF0.024483922942645453
aF0.008599388899203197
aF0.5
aF0.9095360025390214
aF0.5
aF0.9995535541814055
aI0
aI0
aI0
aI1
aI1
aI1
aI1
aF0.5
aI1
aI1
aI1
aI1
aF0.5
aF0.4499999594959673
aF0.5
aF0.4910400773608384
aF0.0499504500450455
aF0.5
aI0
aI0
aF0.5
aF0.5117294247848166
aF0.5
aF0.5041809962526282
aF0.5
aF0.5
aF0.999954999549545
aI0
aI0
aI0
aI1
aI1
aI1
aI1
aF0.5
aI1
aI1
aI1
aI1
aF0.00891054521183119
aF0.0
aF0.5
aF0.04500454995004993
aF0.5
aF0.5
aI0
aI0
aF0.5
aF0.5
aF0.04640442079370638
aF0.5
aF0.545495000851401
aF0.5
aF0.5
aI0
aI0
aI0
aI1
aI1
aI1
aI1
aF0.5
aI1
aI1
aI1
aI1
aF0.5
aF0.5
aF0.5
aF0.5
aF0.5
aF0.5
aI0
aI0
aF0.5
aF0.5
aF0.33359248354426785
aF0.5
aF0.9630644925650693
aF0.2709852488610509
aF0.5
aF0.5
aF0.5
aF0.5
aF0.9999999568097548
aF0.9999999999024666
aF0.5
aF0.9999996782983055
aI1
aF0.9545401453309315
aF0.5
aF0.8279141952149907
aF0.5
aF0.5
aF0.5
aF0.5
aF0.5
aF1.0
aF0.5
aF0.5
aF0.5
aI0
aF0.9883173422812164
aF0.9999999918166365
aF0.5
aF0.9999109564737143
aF0.5
aF0.5
aF0.5
aF0.9999999909083898
aF0.5
aF0.9914462101551414
aF0.5
aF0.5089558065845112
aF0.5
aI1
aF0.5
aF0.17298999731294473
aF0.09909999990990903
aF0.5
aF0.5
aF1.0
aF0.5
aF0.9947299594366534
aF1.0
aF0.5
aF0.5
aF0.5
aI0
aF0.5
aF0.5
aF0.5
aF0.5
aF0.18999180984614772
aF0.5
aF0.5
aF0.5
aF0.5
aF0.5
aF0.9999994960854995
aF0.5
aF0.9999999107289027
aI1
aF0.5
aF0.5
aF0.5
aF0.5
aF0.5
aF0.5
aF0.5
aF0.5
aF0.5
aF0.5
aF0.5
aF0.5
aI0
aF0.9999996137770661
aI1
aF0.5
aF0.5904967807942889
aI1
aF0.545406378034218
aF0.5
aI1
aF0.5
aF0.9999999999073357
aI1
aF0.5462159500534104
aF0.5
aF0.5
aF0.9549995049549505
aF1.0
aI1
aF0.5
aF0.5
aI1
aF0.5
aF0.594999954736408
aI1
aF0.5
aF0.5
aI1
aI0
aF0.9999575091852647
aI1
aF0.5004055885639923
aF0.5
aI1
aF0.5
aF0.9999995459090459
aI1
aF0.5
aF0.5
aI1
aF0.545450004504995
aF0.5
aF0.5
aF0.5
aF1.0
aI1
aF1.0
aF0.5490994635950945
aI1
aF0.5
aF0.999999999950455
aI1
aF0.5
aF0.5
aI1
aI0
aF0.5
aI1
aF0.5
aF0.9999590045369415
aI1
aF0.5
aF0.5
aI1
aF0.5
aF0.9999590540454956
aI1
aF0.5
aF0.9999954545045
aF0.5
aF1.0
aF0.5
aI1
aF0.5
aF0.5
aI1
aF0.5
aF0.5
aI1
aF0.5
aF0.5
aI1
aI0
aF0.5
aF0.5
aF0.5
aF0.5
aF0.9180990918909012
aF0.5
aI0
aI0
aI0
aF0.5
aF0.891990909082899
aF0.5
aF0.9990806974257933
aI1
aF0.5
aI0
aI0
aI0
aF0.5
aF0.5
aF0.5
aF0.5
aF0.5
aF0.5
aI0
aI0
aF0.5
aF0.5
aF0.9991080927983791
aF0.5
aF0.9999504905491098
aF1.0
aF0.5
aI0
aI0
aI0
aF0.9904959144409001
aF0.99990090009991
aF0.5
aF0.99999504999995
aI1
aF0.5
aI0
aI0
aI0
aF0.5
aF0.5
aF0.5
aF0.5
aF1.0
aF0.5
aI0
aI0
aF0.5
aI0
aI0
aI0
aI0
aI0
aI0
aF0.5
aF0.5
aF0.5
aI0
aI0
aI0
aI0
aI1
aI0
aF0.5
aF0.5
aF0.5
aI0
aI0
aI0
aI0
aI0
aI0
aF0.5
aF0.5
aF0.5
aF0.8154584519536007
aF0.5
aF0.5210845311576955
aF0.5
aF0.5
aF0.5044563571957209
aF0.8989283387612537
aF0.9572158031520741
aF0.5
aF0.5
aF0.5
aF0.9257070615033929
aF0.5
aI1
aF0.5
aF2.6125924039404073e-05
aF0.5
aF0.918010890019917
aF0.6623568719756934
aF0.628050384167333
aF0.5
aF0.548195974711247
aF0.5
aF0.5
aF0.5
aF0.9918189909100801
aI0
aF0.5
aI1
aF0.4909504871233376
aF0.5
aI1
aF0.5
aF0.05025016676818256
aI1
aF0.9089911619288378
aF0.5
aI1
aF0.5
aF0.5
aF0.5
aF0.5
aF0.5
aI1
aF0.9999900900090001
aF0.12026052139705284
aI1
aF0.4144950953432179
aF0.5
aI1
aF0.5
aF0.08559978223773695
aI1
aI0
aF0.29108810878535174
aF0.22235615898516548
aF0.5
aF0.912817273776744
aF0.5
aF0.9504955444680567
aF0.5
aF0.13603190923044883
aF0.5
aF0.9590937715749025
aF0.5
aF1.0
aF0.5
aI1
aF1.0
aF0.9545491818019356
aF0.04999504950454542
aF0.5
aF0.5
aF0.5131391635855435
aF0.5
aF0.9095040095997654
aF0.5450454950004999
aF0.5
aF0.5
aF0.5
aI0
aF0.5
aI1
aF0.9436624915379226
aF0.5
aI1
aF0.5
aF0.9869950937909302
aI1
aF0.5094082777864548
aI1
aF0.5
aI1
aI1
aF0.5
aI1
aI1
aF0.5
aI1
aF0.1688907047121837
aI1
aF0.4509454999987396
aF0.5
aI1
aF0.5
aF0.4581999680952752
aI1
aI0
aF0.5
aF0.5
aF0.5
aF0.5
aF0.5
aF0.5
aF0.5
aF0.5
aF0.999099900090999
aI1
aF0.5
aI1
aI1
aF0.5
aI1
aI1
aF0.5
aI1
aF0.5
aF0.5
aF0.49950004950499993
aF0.5
aF0.5
aF0.5
aF0.04549995004999546
aF0.5
aI0
aF0.9553273479767809
aI1
aF0.9905054000409631
aF0.5
aI1
aF0.9950004995450005
aF0.9955040499095504
aI1
aF0.5
aI1
aF0.5
aI1
aI1
aF0.5
aI1
aI1
aF0.5
aI1
aF0.9549096305274236
aI1
aF0.5
aF0.9504500004995451
aI1
aF0.5
aF0.5
aI1
aI0
aF0.03254316069911997
aF0.014364655066340298
aF0.5
aF0.5051680220224942
aF0.5
aF0.5418986566735818
aI0
aI0
aI0
aF0.9560533333893058
aF0.5
aF0.9954940514378499
aF0.5
aI1
aF0.9549999950495001
aI0
aI0
aI0
aF0.5
aF0.5050404053815081
aF0.5
aF0.5450000040459466
aF0.5499999545450001
aF0.5
aI0
aI0
aF0.5
aF0.4144111087381196
aI1
aF0.45904099056339986
aF0.5
aI1
aF0.5
aI0
aI1
aI0
aF0.5
aI1
aF0.4995499545000045
aF0.5
aF0.5
aF0.5
aI0
aI1
aI0
aF0.41360864346915854
aI1
aF0.5
aF0.9954999504500001
aI1
aF0.5
aI0
aI1
aF0.5
aF0.5
aF0.04954892102152747
aF0.5
aF0.09503762401015342
aF0.04549999545004957
aF0.5
aI0
aI0
aI0
aF0.9810909027072261
aF0.0
aF0.5
aF0.99000090990901
aI1
aF1.0
aI0
aI0
aI0
aF0.5
aF0.5
aF0.5
aF0.5
aF0.5
aF0.5
aI0
aI0
aF0.5
aF0.5
aF0.5
aF0.49202565853405844
aF0.5
aF0.5
aF0.5
aF0.9000893544102793
aF0.5
aF0.0990054402263969
aI1
aI1
aI1
aI1
aF0.5
aI1
aI1
aI1
aI1
aF0.831656001000705
aF0.5
aF0.49505384524243184
aF0.5
aF0.5
aF0.5
aF1.63718926226197e-06
aF0.009090999090099083
aI0
aF0.5
aI1
aF0.5
aF0.5
aI1
aF0.5
aF0.5
aI1
aF0.0
aI1
aF0.5
aI1
aI1
aF0.5
aI1
aI1
aF0.5
aI1
aF0.5
aI1
aF0.4549999954500046
aF0.5
aI1
aF0.5
aF0.0
aI1
aI0
aF0.9991659324621301
aF0.5
aF0.9099954851059033
aF0.5
aF0.5
aF0.9950495049500004
aF0.9999991077288396
aF0.9999900909909901
aF0.5
aI1
aI1
aI1
aI1
aF0.5
aI1
aI1
aI1
aI1
aF0.9914047252341819
aF0.9549995004995049
aF0.5
aF0.5
aF0.5
aF0.5
aF0.5
aF1.0
aI0
aF0.5
aI1
aF0.5
aF0.5
aI1
aF0.5
aF0.5
aI1
aF0.495499504954545
aF0.5
aF0.5
aF0.5
aF0.5
aF0.5
aF0.5
aF0.5
aF0.5
aF0.5
aF0.5
aI1
aF0.04549954950495044
aF0.5
aI1
aF0.5
aF0.09000000909099903
aI1
aI0
aI1
aF0.5
aI1
aI1
aF0.5
aI1
aI1
aF0.5
aI1
aF0.5
aF0.5
aF0.5
aF0.5
aF0.5
aF0.5
aF0.5
aF0.5
aF0.5
aI1
aF0.5
aI1
aI1
aF0.5
aI1
aI1
aF0.5
aI1
aF0.5
aI1
aF0.5
aF0.5
aI1
aF0.5
aF0.9999999995454955
aI1
aF0.5
aF0.5
aF0.5
aF0.5
aF0.5
aF0.5
aF0.5
aF0.5
aF0.5
aF0.5
aF0.9995004500499545
aI1
aF0.5
aF0.5
aI1
aF0.5
aF1.0
aI1
aI0
aF0.5252313118099028
aF0.5
aF0.5053914601874552
aF0.5
aF0.5
aF0.995049950004955
aI0
aI0
aI0
aI1
aI1
aI1
aI1
aF0.5
aI1
aI1
aI1
aI1
aF0.09446481580581423
aF0.49950495004500006
aF0.5
aF0.5
aF0.5
aF0.5
aI0
aI0
aF0.5
aF0.5
aI1
aF0.45499549999995453
aF0.5
aI1
aF0.5
aI0
aI1
aI0
aI1
aF0.5
aI1
aI1
aF0.5
aI1
aI1
aI0
aI1
aF0.450495045045045
aI1
aF0.5
aF0.5
aI1
aF0.5
aI0
aI1
aF0.5
aF0.9914086490392598
aF0.0004999504995004999
aF0.5
aF0.5454549999995049
aF0.5
aF1.0
aI0
aI0
aI0
aI1
aI1
aI1
aI1
aF0.5
aI1
aI1
aI1
aI1
aF0.5
aF0.5
aF0.5
aF0.5
aF0.5
aF0.5
aI0
aI0
aF0.5
aF0.59920033797604
aF0.999999989306376
aF0.5
aF0.5546679511427353
aF0.5
aF0.5000090316362645
aF0.5
aF0.9999490554545545
aF0.5
aF0.9999620273327656
aF0.5
aF0.9999590405370727
aF0.5
aI1
aF0.999954950004545
aF0.09940075901957673
aF0.004549950450495048
aF0.5
aF0.5
aF1.0
aF0.5
aF0.9999995001025548
aF1.0
aF0.5
aF0.5
aF0.5
aI0
aF0.5824567871434232
aI1
aF0.5454141308566889
aF0.5
aI1
aF0.5
aF0.459324235068671
aI1
aF0.5
aF0.5
aI1
aF0.9999999545004995
aF0.5
aF0.5
aF0.5
aF0.09999990099
aI1
aF1.0
aF0.545490954459501
aI1
aF0.5
aF0.999999549995
aI1
aF0.5
aF0.5
aI1
aI0
aF0.5
aF0.9996984649818816
aF0.5
aF0.901907830016111
aF0.09999099900909991
aF0.5
aF0.5
aF0.5
aF0.5
aF0.025551911790459264
aF0.495000499505
aF0.5
aF0.09999009099901002
aI1
aF1.0
aF0.5
aF0.5
aF0.5
aF0.5
aF0.5
aF0.5
aF0.5
aF1.0
aF0.5
aF0.5
aF0.5
aI0
aF0.9999999506336795
aI1
aF0.5121960025698975
aF0.5
aI1
aF0.5045000495049996
aF0.9999505891817776
aI1
aF0.5
aI1
aF0.5
aI1
aI1
aF0.5
aI1
aI1
aF0.5
aI1
aF0.9553608103959546
aI1
aF0.5
aF0.5499999504504549
aI1
aF0.5
aF0.5
aI1
aI0
aF0.5
aF0.5
aF0.5000450049995045
aF0.5
aF0.5
aF0.5
aF0.9995004500495455
aF0.5
aF1.0
aI1
aF0.5
aI1
aI1
aF0.5
aI1
aI1
aF0.5
aI1
aF0.5
aF0.5
aF0.5
aF0.5
aF0.5
aF0.5
aF0.5
aF0.5
aI0
aF1.0
aI1
aF0.5
aF1.0
aI1
aF1.0
aF0.5
aI1
aF0.5
aI1
aF0.5
aI1
aI1
aF0.5
aI1
aI1
aF0.5
aI1
aF0.5
aI1
aF0.5
aF1.0
aI1
aF0.5
aF0.5
aI1
aI0
aF0.5
aF0.9909916397262
aF0.5
aF0.5051866750585576
aF0.9090990900909001
aF0.5
aI0
aI0
aI0
aF0.04549499203871504
aF0.0
aF0.5
aF0.4954545495049955
aI1
aF0.5
aI0
aI0
aI0
aF0.5
aF0.5
aF0.5
aF0.5
aF1.0
aF0.5
aI0
aI0
aF0.5
aF0.5090900491322707
aI1
aF0.5
aF0.5499950000049996
aI1
aF0.5
aI0
aI1
aI0
aF0.454549999954505
aI1
aF0.5
aF0.5
aF0.5
aF0.5
aI0
aI1
aI0
aF0.5
aI1
aF0.5
aF1.0
aI1
aF0.5
aI0
aI1
aF0.5
aI0
aI0
aI0
aI0
aI0
aI0
aF0.5
aF0.5
aF0.5
aI0
aI0
aI0
aI0
aI1
aI0
aF0.5
aF0.5
aF0.5
aI0
aI0
aI0
aI0
aI0
aI0
aF0.5
aF0.5
aF0.5
aF0.5
aF0.9985480696114721
aF0.5
aF0.8741100585559873
aF0.961831578809714
aF0.5
aF0.5
aF0.5
aF0.5
aF0.8830556142148671
aF0.9992697990785109
aF0.5
aF0.9594055417654253
aI1
aF0.9095487350410383
aF0.5
aF0.9188829442974573
aF0.5
aF0.5
aF0.5
aF0.5
aF0.5
aF0.9089038166817293
aF0.5
aF0.5
aF0.5
aI0
aF0.5200165561794874
aF0.9399976091455414
aF0.5
aF0.020987340002016464
aF0.5
aF0.999504554409189
aF0.5
aF0.9910363896861726
aF0.5
aF0.9809196531427645
aF0.5
aF0.5459405584222046
aF0.5
aI1
aF0.95495004954505
aF0.9108058325791927
aF0.9099900090991
aF0.5
aF0.5
aF0.945014452584999
aF0.5
aF0.026920916100003467
aF0.9900990009999091
aF0.5
aF0.5
aF0.5
aI0
aF0.5
aF0.5
aI0
aF0.5
aF0.9594954999630623
aI0
aF0.5
aF0.8645
aI0
aF0.5
aF1.0
aI0
aF0.5049995498591369
aI1
aI0
aF0.5
aF0.5
aI0
aF0.5
aF0.5
aI0
aF0.5
aF0.5
aI0
aF0.5
aF0.5
aF0.5
aF0.9630717524301688
aI1
aF0.5
aF0.8735830186266607
aI1
aF0.09987361567820657
aF0.5
aI1
aF0.5
aF0.9542156098902735
aI1
aF0.9500486859820803
aF0.5
aF0.5
aF0.4549954999549995
aF0.9954514396040545
aI1
aF0.5
aF0.5
aI1
aF0.5
aF1.0
aI1
aF0.5
aF0.5
aI1
aI0
aF0.5909421865544837
aI1
aF0.545499918054995
aF0.5
aI1
aF0.9954954999504955
aF0.9999590500364051
aI1
aF0.5
aF0.5
aI1
aF0.5
aF0.5
aF0.5
aF0.5
aF0.950000499504505
aI1
aF0.5
aF1.0
aI1
aF0.5
aF1.0
aI1
aF1.0
aF0.5
aI1
aI0
aF0.5
aI1
aI0
aF0.9549990613327857
aI1
aI0
aF0.5
aI1
aI0
aF0.9954950414085546
aI1
aI0
aF0.49999999995454547
aF0.5
aI0
aF0.5
aI1
aI0
aF0.5
aI1
aI0
aF0.5
aI1
aI0
aF0.5
aI1
aF0.5
aF0.5
aF0.5
aF0.5
aF0.5
aF0.180163800508769
aF0.5
aI0
aI0
aI0
aF0.5
aF0.9108181875266308
aF0.5
aF1.0
aI1
aF0.5
aI0
aI0
aI0
aI0
aI0
aI0
aI0
aI0
aI0
aF0.5
aF0.5
aF0.5
aF0.5
aF0.0024554037272731984
aF0.5
aF0.00012298944144518206
aF0.09000009090909
aF0.5
aI0
aI0
aI0
aF0.99173783636362
aF0.900909099090909
aF0.5
aF1.0
aI1
aF1.0
aI0
aI0
aI0
aI0
aI0
aI0
aI0
aI0
aI0
aF0.5
aF0.5
aF0.5
aF0.5
aF0.5
aI0
aF0.5
aF0.5
aI0
aI0
aI0
aF0.5
aF0.5
aF0.5
aI0
aF0.5
aI1
aI0
aI0
aI0
aF0.5
aI0
aI0
aF0.5
aI0
aI0
aF0.5
aF0.5
aF0.5
aF0.5
aF0.9977184345989889
aF0.9222162400889399
aF0.5
aF0.18828827725793418
aF0.5
aF0.9999999918918108
aF0.5
aF0.09181850094946897
aF0.5
aI1
aI1
aI1
aI1
aF0.5
aI1
aI1
aI1
aI1
aF0.5
aF0.994951012802718
aF0.5
aF0.9909001000790599
aF0.99000009
aF0.5
aF0.5
aF0.5
aI0
aF0.46931973233100865
aF0.5
aF1.0
aF0.5
aF0.5
aF1.0
aF0.41054539649445965
aF0.4500454995499955
aF0.5
aI1
aI1
aI1
aI1
aF0.5
aI1
aI1
aI1
aI1
aF0.18040814838912578
aF0.4995045004504545
aF0.5
aF0.09090990909099894
aF0.5
aF1.0
aF0.5
aF0.5
aI0
aF0.5
aF0.9999914931487202
aI0
aF0.9999554356142025
aF0.9999954995004955
aI0
aF0.5
aF0.905
aI0
aI1
aI1
aI1
aI1
aF0.5
aI1
aI1
aI1
aI1
aF0.5
aF0.5
aI0
aF0.5
aF1.0
aI0
aF0.5
aF0.95
aF0.5
aF0.999183077530911
aI1
aF0.9189099100719912
aF0.5
aI1
aF0.90990900990901
aF1.0
aI1
aF0.5
aI1
aF0.5
aI1
aI1
aF0.5
aI1
aI1
aF0.5
aI1
aF1.0
aI1
aF0.5
aF1.0
aI1
aF1.0
aF0.5
aI1
aI0
aI1
aF0.5
aI1
aI1
aF0.5
aI1
aI1
aF0.5
aI1
aF0.5
aF0.5
aF0.5
aF0.5
aF0.5
aF0.5
aF0.5
aF0.5
aF0.5
aI1
aF0.5
aI1
aI1
aF0.5
aI1
aI1
aF0.5
aI1
aF0.9999189892972988
aI1
aI0
aF0.999999909999009
aI1
aI0
aF0.5
aI1
aI0
aI1
aF0.5
aI1
aI1
aF0.5
aI1
aI1
aF0.5
aI1
aF0.5
aI1
aI0
aF1.0
aI1
aI0
aF0.5
aI1
aF0.5
aF0.5
aF0.004508559049585997
aF0.5
aF0.09865031868505061
aF0.049545000045005005
aF0.5
aI0
aI0
aI0
aI1
aI1
aI1
aI1
aF0.5
aI1
aI1
aI1
aI1
aI0
aI0
aI0
aI0
aI0
aI0
aF0.5
aF0.5
aF0.5
aF0.00981116377406245
aF0.0
aF0.5
aF0.09900090999099986
aF0.5
aF1.0
aI0
aI0
aI0
aI1
aI1
aI1
aI1
aF0.5
aI1
aI1
aI1
aI1
aI0
aI0
aI0
aI0
aI0
aI0
aF0.5
aF0.5
aF0.5
aF0.5
aF0.5
aI0
aF0.5
aF0.5
aI0
aI0
aI0
aF0.5
aI1
aI1
aI1
aI1
aF0.5
aI1
aI1
aI1
aI1
aI0
aI0
aF0.5
aI0
aI0
aF0.5
aF0.5
aF0.5
aF0.5
aF0.5
aF0.5
aF0.5
aF0.5
aF1.0
aF0.5
aF0.5
aF0.5
aF0.5
aF0.5
aF1.0
aF0.5
aF0.9549954099139604
aI1
aF0.5
aF0.5
aF0.5
aF0.5
aF0.5
aF0.5
aF0.5
aF0.5
aF0.5
aF0.5
aF0.5
aF0.5
aI0
aF0.5
aF1.0
aF0.5
aF0.9999955003230591
aF1.0
aF0.5
aF0.5
aF0.5
aF0.5
aF0.5454582305103263
aF1.0
aF0.5
aF0.9999954549549505
aI1
aF0.5
aF0.5
aF1.0
aF0.5
aF0.5
aF0.5
aF0.5
aF0.5
aF1.0
aF0.5
aF0.5
aF0.5
aI0
aF0.5
aF0.5
aI0
aF0.5
aF0.5
aI0
aF0.5
aF0.5
aI0
aF0.5
aF0.5
aI0
aF0.5
aI1
aI0
aF0.5
aF0.5
aI0
aF0.5
aF0.5
aI0
aF0.5
aF0.5
aI0
aF0.5
aF0.5
aF0.5
aF0.5
aI1
aF0.5
aF0.5004999486678696
aI1
aF0.5
aF0.5
aI1
aF0.5
aF0.995001662656976
aI1
aF0.5
aF0.5
aF0.5
aF0.5
aF0.5
aI1
aF0.5
aF0.5
aI1
aF0.5
aF0.5
aI1
aF0.5
aF0.5
aI1
aI0
aF0.5859545941797574
aI1
aF0.5
aF0.999995499999505
aI1
aF0.5
aF0.5
aI1
aF0.5
aF0.5450000450450496
aI1
aF0.5
aF0.5
aF0.5
aF0.5
aF1.0
aI1
aF0.5
aF0.5
aI1
aF0.5
aF1.0
aI1
aF0.5
aF0.5
aI1
aI0
aF0.5
aI1
aI0
aF0.5
aI1
aI0
aF0.5
aI1
aI0
aF0.5
aI1
aI0
aF0.5
aF0.5
aI0
aF0.5
aI1
aI0
aF0.5
aI1
aI0
aF0.5
aI1
aI0
aF0.5
aI1
aF0.5
aF0.5
aF0.5
aF0.5
aF0.5
aF0.5
aF0.5
aI0
aI0
aI0
aF0.5
aF0.5
aF0.5
aF0.5
aI1
aF0.5
aI0
aI0
aI0
aI0
aI0
aI0
aI0
aI0
aI0
aF0.5
aF0.5
aF0.5
aF0.5
aF0.5
aF0.5
aF0.5
aF1.0
aF0.5
aI0
aI0
aI0
aF0.5
aF1.0
aF0.5
aF1.0
aI1
aF0.5
aI0
aI0
aI0
aI0
aI0
aI0
aI0
aI0
aI0
aF0.5
aF0.5
aF0.5
aI0
aI0
aF0.5
aI0
aI0
aF0.5
aF0.5
aF0.5
aF0.5
aI0
aI0
aF0.5
aI0
aI1
aF0.5
aF0.5
aF0.5
aF0.5
aF0.5
aF0.5
aF0.5
aF0.5
aF0.5
aF0.5
aF0.5
aF0.5
aF0.5
aF0.5
aF0.376967986969145
aF0.5
aF0.36372810182267235
aF0.8364082462222934
aF0.5
aF0.5
aF0.5
aF0.5
aF0.16460799351837063
aF0.6470491929028234
aF0.5
aF0.898365096053885
aI1
aF0.8343809338661875
aF0.5
aF0.9912659595658702
aF0.5
aF0.5
aF0.5
aF0.5
aF0.5
aF0.507147487457723
aF0.5
aF0.5
aF0.5
aI0
aF0.8112206906306038
aF0.9253514382207282
aF0.5
aF0.9135541879100129
aF0.5
aF0.9150859640978366
aF0.5
aF0.9176338813367547
aF0.5
aF0.10058039993373324
aF0.5
aF0.902785774363097
aF0.5
aI1
aF0.0964369170966326
aF0.9595280904788798
aF0.8149550893014242
aF0.5
aF0.5
aF0.009202525560299366
aF0.5
aF0.164506622415927
aF1.7262565007560146e-05
aF0.5
aF0.5
aF0.5
aI0
aF0.5
aF0.5
aF0.5
aF0.5
aF0.6312403614173328
aF0.5
aF0.5
aF0.5
aF0.5
aF0.5
aF0.948004349792489
aF0.5
aF0.9845171163213956
aI1
aF0.5
aF0.5
aF0.5
aF0.5
aF0.5
aF0.5
aF0.5
aF0.5
aF0.5
aF0.5
aF0.5
aF0.5
aI0
aF0.25185538475231484
aF0.9071376637560837
aF0.5
aF0.990898015587562
aF0.5
aF0.9999765447632416
aF0.5
aF0.5888959664203275
aF0.5
aF0.9977395877739129
aF0.5
aF0.25442977365157193
aF0.5
aI1
aF0.1807939522620633
aF0.9260064783637889
aF0.4190262935171315
aF0.5
aF0.5
aF0.7962235511325916
aF0.5
aF0.1838476390192364
aF0.0994448460913826
aF0.5
aF0.5
aF0.5
aI0
aF0.7448214489567129
aF0.5
aF0.8990219997148268
aF0.5
aF0.5
aF0.9925249915819385
aF0.9258043053002364
aF0.9492745228631216
aF0.5
aF0.5
aF0.5
aF0.9999263709999869
aF0.5
aI1
aF0.5
aF0.9550368106853
aF0.5
aF1.0
aF0.9189844792205784
aF0.001000007889591495
aF0.5
aF0.17279936673596885
aF0.5
aF0.9983637739071983
aF0.5
aF0.9918918900812906
aI0
aF0.5
aF0.622728605078399
aF0.5
aF0.9630866983918172
aF0.9994042451250633
aF0.5
aF0.5
aF0.5
aF0.5
aF0.6309612664887119
aF0.9991038389843769
aF0.5
aF0.9918823200513075
aI1
aF0.09999918197378288
aF0.5
aF0.9954986545720544
aF0.5
aF0.5
aF0.5
aF0.5
aF0.5
aF0.10395999900675101
aF0.5
aF0.5
aF0.5
aI0
aF0.5
aF0.5
aI0
aF0.5
aF0.33137707189605403
aI0
aF0.5
aF0.5
aI0
aF0.5
aF0.8403710586515517
aI0
aF0.03568310754736154
aI1
aI0
aF0.5
aF0.5
aI0
aF0.5
aF0.5
aI0
aF0.5
aF0.5
aI0
aF0.5
aF0.5
aF0.5
aF0.5
aF0.21331083181427324
aI0
aF0.08352017503656706
aF0.2620132431553276
aI0
aF0.5
aF0.5
aI0
aF0.5768561724729728
aF0.5410683145201105
aI0
aF0.8198920162042037
aI1
aI0
aF0.5
aF0.5000445982661352
aI0
aF0.5
aF0.5
aI0
aF0.5
aF0.18996657415147866
aI0
aF0.5
aF0.5
aF0.5
aF0.5
aF0.5
aI0
aF0.5
aF0.5
aI0
aF0.5
aF0.5
aI0
aF0.5
aF0.5
aI0
aF0.5
aI1
aI0
aF0.5
aF0.5
aI0
aF0.5
aF0.5
aI0
aF0.5
aF0.5
aI0
aF0.5
aF0.5
aF0.5
aF0.9284882140233599
aF0.9147009871393454
aF0.5
aF0.9228008074382391
aF0.5
aF0.008859827863315017
aF0.5
aF0.9954603026598263
aF0.5
aF0.9822140180512554
aF0.5
aF0.010514971695054262
aF0.5
aI1
aF0.8173055456011792
aF0.49909106266180425
aF0.5389466134534084
aF0.5
aF0.5
aF0.9161257382843033
aF0.5
aF0.19720086447248014
aF0.9068158828292798
aF0.5
aF0.5
aF0.5
aI0
aF0.9985757446221453
aF0.5
aF0.1662103695269681
aF0.5
aF0.5
aF0.907121172539208
aF0.9103839346948039
aF0.9999094667940819
aF0.5
aF0.5
aF0.5
aF0.07744466197519095
aF0.5
aI1
aF0.5
aF0.9004422615860603
aF0.5
aF0.8604451216450437
aF0.12771295591927134
aF0.9999982486021538
aF0.5
aF0.049280231694076596
aF0.5
aF0.9425699723364831
aF0.5
aF1.0
aI0
aF0.5
aF0.5464591161745128
aF0.5
aF0.2375454522496615
aF0.5904191113534482
aF0.5
aF0.5
aF0.5
aF0.5
aF0.19669903906988517
aF0.5559887685486626
aF0.5
aF0.9739788678739473
aI1
aF0.0008190009106094917
aF0.5
aF0.5012199826119232
aF0.5
aF0.5
aF0.5
aF0.5
aF0.5
aF0.9910265818575257
aF0.5
aF0.5
aF0.5
aI0
aF0.9998993927847482
aF0.5
aF0.9999999995113855
aF0.5
aF0.5
aF0.9999999991080177
aF0.996197817669893
aF0.9420621685495616
aF0.5
aF0.5
aF0.5
aF0.9999911517770614
aF0.5
aI1
aF0.5
aF0.9177887033807507
aF0.5
aF1.0
aF0.9939295693743858
aF0.9494329763861804
aF0.5
aF0.9999741912912123
aF0.5
aF1.0
aF0.5
aF0.5949459999499586
aI0
aI1
aI1
aI1
aI1
aI1
aI1
aI1
aI1
aI1
aI1
aI1
aI1
aI1
aF0.5
aI1
aI1
aI1
aI1
aI1
aI1
aI1
aI1
aI1
aI1
aI1
aI1
aI1
aF0.8715392362790527
aF0.5379646073173263
aF0.5
aF0.8985353131230477
aF0.5
aF0.9099990829899992
aF0.5
aF0.5445723298652922
aF0.5
aF0.9990234998636763
aF0.5
aF0.9909190873096144
aF0.5
aI1
aF9.099099900089989e-08
aF0.5815088110584099
aF0.5045004504500495
aF0.5
aF0.5
aF0.5040905454022667
aF0.5
aF0.5454065160963427
aF0.9999500454504995
aF0.5
aF0.5
aF0.5
aI0
aF0.5
aF0.9757899061995876
aI0
aF0.8860896855900725
aF0.9558365651945246
aI0
aF0.5
aF0.5
aI0
aF0.009929887642256371
aF0.8777999181911631
aI0
aF0.17838346644505731
aI1
aI0
aF0.5
aF0.0014391639486780305
aI0
aF0.5
aF0.5
aI0
aF0.5
aF0.9536977099057773
aI0
aF0.5
aF0.5
aF0.5
aF0.0946710950822941
aF0.9908610720735991
aI0
aF0.008188635972570815
aF0.5
aI0
aF0.5
aF0.9909010120644999
aI0
aF0.015789879707477472
aF0.5
aI0
aF0.5
aI1
aI0
aF0.00854649371790081
aF0.4950049954505
aI0
aF0.5
aF0.9999828008467151
aI0
aF0.09082062820177696
aF0.099909999099009
aI0
aF0.5
aF0.5
aF0.5
aF0.5
aF0.5
aI0
aF0.5
aF0.5949995904910365
aI0
aF0.5
aF0.5
aI0
aF0.5
aF0.9099991817280153
aI0
aF0.9090162929666494
aI1
aI0
aF0.5
aF0.5
aI0
aF0.5
aF0.5
aI0
aF0.5
aF0.5
aI0
aF0.5
aF0.5
aF0.5
aF0.5
aF0.5
aF0.5
aF0.5
aF0.8233694595977884
aF0.5
aF0.5
aF0.5
aF0.5
aF0.5
aF0.6246753798928926
aF0.5
aF0.999999932065304
aI1
aF0.5
aF0.5
aF0.5
aF0.5
aI0
aI0
aI0
aI0
aI0
aI0
aI0
aI0
aF0.5
aF0.5
aF0.9997495982107323
aF0.5
aF0.16308866800264166
aF0.09009085906482972
aF0.5
aF0.5
aF0.5
aF0.5
aF0.5783283613392779
aF0.5565206518683803
aF0.5
aF0.9995930379513748
aI1
aF0.9090253728162093
aF0.5
aF0.9504990914450412
aF0.5
aI0
aI0
aI0
aI0
aI0
aI0
aI0
aI0
aF0.5
aF0.5
aF0.5
aF0.5
aF0.5
aF0.5
aF0.5
aF0.5
aF0.5
aF0.5
aF0.5
aF0.5
aF0.5
aF0.5
aI1
aF0.5
aF0.5
aF0.5
aF0.5
aI0
aI0
aI0
aI0
aI0
aI0
aI0
aI0
aF0.5
aF0.5
aF0.22112364378977462
aF0.5
aF0.9101187471058723
aF0.18950067601792686
aF0.5
aF0.5
aF0.5
aF0.5
aF0.9213213822152125
aF0.5017062156144352
aF0.5
aF0.9999676572079839
aI1
aF1.0
aF0.5
aF0.545458599054905
aF0.5
aI0
aI0
aI0
aI0
aI0
aI0
aI0
aI0
aF0.5
aF0.8847135630302517
aF0.8509960707238466
aF0.5
aF0.8027511134731761
aF0.5
aF0.1890091170171081
aF0.5
aF0.49149446467915786
aF0.5
aF0.8348666700315919
aF0.5
aF1.0
aF0.5
aI1
aF1.0
aF0.909095499454645
aF0.5
aF0.5
aI0
aI0
aI0
aI0
aI0
aI0
aI0
aI0
aF0.5
aF0.5
aF0.5
aF0.5
aF0.5
aF0.5495905314581127
aF0.5
aF0.5
aF0.5
aF0.5
aF0.5
aF0.9999999999554455
aF0.5
aF1.0
aI1
aF0.5
aF0.5
aF0.5
aF0.5
aI0
aI0
aI0
aI0
aI0
aI0
aI0
aI0
aF0.5
aF0.5
aF0.5
aI0
aF0.5
aF0.5
aI0
aF0.5
aF0.5
aI0
aF0.5
aF0.5
aI0
aF0.5
aI1
aI0
aF0.5
aF0.5
aI0
aI0
aI0
aF0.5
aI0
aI0
aF0.5
aI0
aI0
aF0.5
aF0.5
aF0.5
aI0
aF0.5
aF0.18999908281089262
aI0
aF0.5
aF0.5
aI0
aF0.5
aF1.0
aI0
aF0.9001264193330102
aI1
aI0
aF0.5
aF0.5
aI0
aI0
aI0
aF0.5
aI0
aI0
aF0.5
aI0
aI0
aF0.5
aI0
aI0
aF0.5
aI0
aI0
aF0.5
aI0
aI0
aF0.5
aI0
aI0
aF0.5
aI0
aI1
aF0.5
aI0
aI0
aF0.5
aF0.5
aF0.5
aF0.5
aF0.5
aF0.5
aF0.5
aF0.5
aF0.5
aF0.5
aF0.8396874814300411
aF0.8494130834444578
aF0.5
aF0.9010083757339536
aF0.5
aF0.9897264532970705
aF0.5
aF0.5548973522787124
aF0.5
aF0.7342875999903168
aF0.5
aF0.9991006263357728
aF0.5
aI1
aF0.9083007550193348
aF0.9275810567172467
aF0.9955802081713407
aF0.5
aF0.5
aF0.01670055590743516
aF0.5
aF0.887124907456531
aF0.00631608728194423
aF0.5
aF0.5
aF0.5
aI0
aF0.8257391773000199
aI1
aF0.909815630422667
aF0.5
aI1
aF0.9963978544860648
aF0.9999999657157519
aI1
aF0.5
aF0.5
aI1
aF0.9749290945233449
aF0.5
aF0.5
aF0.5
aF0.9999999784073988
aI1
aF0.9505240688781892
aF0.10568323526396309
aI1
aF0.5
aF0.09958439726565438
aI1
aF0.0008206937870566238
aF0.5
aI1
aI0
aF0.5
aF0.24255842670519956
aF0.5
aF0.1455018682715451
aF0.17640803633550295
aF0.5
aF0.5
aF0.5
aF0.5
aF0.518209662071909
aF0.6314399519004783
aF0.5
aF0.9508344191037696
aI1
aF0.5321291584235124
aF0.5
aF0.5090941450409904
aF0.5
aF0.5
aF0.5
aF0.5
aF0.5
aF0.09054357621341885
aF0.5
aF0.5
aF0.5
aI0
aF0.9992330349376372
aF0.5
aF0.9999828384563351
aF0.5
aF0.5
aF0.9999984302012455
aF0.9957343119821215
aF0.9540657862694824
aF0.5
aI1
aI1
aI1
aI1
aF0.5
aI1
aI1
aI1
aI1
aF0.9246204618744578
aF0.5939185593778702
aF0.5
aF0.9920659190131971
aF0.5
aF0.9999991809908192
aF0.5
aF0.9954009487481899
aI0
aF0.5
aI1
aF0.9032833921889967
aF0.5
aI1
aF0.5
aF0.9999991745853427
aI1
aF0.18730269156606438
aI1
aF0.5
aI1
aI1
aF0.5
aI1
aI1
aF0.5
aI1
aF0.9909749338247761
aI1
aF0.8281782017198855
aF0.5
aI1
aF0.99909099000909
aF0.09009909909009983
aI1
aI0
aF0.955621990188377
aF0.950782120870738
aF0.5
aF0.9515862579015517
aF0.5
aF1.0
aF0.5
aF0.9918140530810672
aF0.5
aI1
aI1
aI1
aI1
aF0.5
aI1
aI1
aI1
aI1
aF0.5
aF0.4549140865357574
aF0.5
aF0.5046259223592481
aF0.004954545450499989
aF0.5
aF0.5
aF0.5
aI0
aF0.5
aF0.515342733737701
aI0
aF0.1688942365146442
aF0.1858592343717299
aI0
aF0.5
aF0.5
aI0
aF0.06360967979617221
aF0.498131568067499
aI0
aF0.011779557983670808
aI1
aI0
aF0.5
aF0.04631895962677135
aI0
aF0.5
aF0.5
aI0
aF0.5
aF0.5494280446832993
aI0
aF0.5
aF0.5
aF0.5
aF0.906838505699028
aI1
aI0
aF0.07628955915525906
aI1
aI0
aF0.5
aI1
aI0
aF0.8433195596826868
aI1
aI0
aF0.5
aF0.5
aI0
aF0.9827838738821061
aI1
aI0
aF0.5
aI1
aI0
aF0.08288109907308248
aI1
aI0
aF0.5
aI1
aF0.5
aF0.5
aF0.5
aI0
aF0.5
aF0.9900986733590071
aI0
aF0.5
aF0.5
aI0
aF0.5
aF0.4955504458594162
aI0
aF0.000998288110710982
aI1
aI0
aF0.5
aF0.5
aI0
aF0.5
aF0.5
aI0
aF0.5
aF0.5
aI0
aF0.5
aF0.5
aF0.5
aF0.9537174328316285
aF0.5
aF0.8132309394167044
aF0.5
aF0.5
aF0.9896621230837144
aF0.6300362230103067
aF0.957188579732365
aF0.5
aF0.5
aF0.5
aF8.10578319976797e-06
aF0.5
aI1
aF0.5
aF0.9904561281867026
aF0.5
aF0.09487736274257114
aF0.7416642188514884
aF0.5454029200674428
aF0.5
aF0.9843159841888246
aF0.5
aF0.9991728073250343
aF0.5
aF0.5450045499054594
aI0
aF0.5
aI1
aF0.9043237470639686
aF0.5
aI1
aF0.5
aF0.9998088136041925
aI1
aF0.0050048956397655865
aF0.5
aI1
aF0.5
aF0.5
aF0.5
aF0.5
aF0.5
aI1
aF0.004504545004994996
aF0.10558680341596016
aI1
aF0.9008108353064456
aF0.5
aI1
aF0.999090000009909
aF0.9999010017999838
aI1
aI0
aF0.9504513680672151
aF0.5041800749554246
aF0.5
aF0.5442788314037976
aF0.5
aF0.018172143414274866
aF0.5
aF0.545077886041441
aF0.5
aF0.9468088476960236
aF0.5
aF0.1889456760018018
aF0.5
aI1
aF0.900990999099091
aF0.5540455404550271
aF0.50004549505
aF0.5
aF0.5
aF0.5
aF0.5
aF0.5004459913590266
aF0.5
aF0.5
aF0.5
aF0.5
aI0
aF0.5
aF0.5
aF0.9999999919077839
aF0.5
aF0.5
aF0.5
aF0.9953485992382893
aF0.5
aF0.9918910874863792
aI1
aI1
aI1
aI1
aF0.5
aI1
aI1
aI1
aI1
aF0.5498292949455696
aF0.5
aF0.999991008828901
aF0.5
aF0.5
aF1.0
aF0.09500499014436009
aF0.5
aI0
aI1
aF0.5
aI1
aI1
aF0.5
aI1
aI1
aF0.5
aI1
aF0.5
aF0.5
aF0.5
aF0.5
aF0.5
aF0.5
aF0.5
aF0.5
aF0.5
aI1
aF0.5
aI1
aI1
aF0.5
aI1
aI1
aF0.5
aI1
aF0.9999142301535178
aF0.5
aF1.0
aF0.5
aF0.5
aF1.0
aF0.9545414045986715
aF0.9504500495045496
aF0.5
aI1
aI1
aI1
aI1
aF0.5
aI1
aI1
aI1
aI1
aF0.5089116457846247
aF0.5
aF0.5
aF0.5045450000454546
aF0.5
aF1.0
aF0.5
aF0.5
aI0
aF0.16250324628644996
aF0.9500787241414341
aI0
aF0.09012285028383582
aF0.5
aI0
aF0.5
aF0.05495886233602648
aI0
aF0.044333182221717504
aF0.5
aI0
aF0.5
aI1
aI0
aF0.4094596373081404
aF4.995499999950484e-07
aI0
aF0.5
aF0.9950144446298728
aI0
aF0.49882534696248837
aF0.999549950499955
aI0
aF0.5
aF0.5
aF0.5
aF0.09899580117263573
aI1
aI0
aF0.5
aI1
aI0
aF0.18981919815415282
aI1
aI0
aF0.5
aI1
aI0
aF0.5
aF0.5
aI0
aF0.0
aI1
aI0
aF0.9820000776191913
aI1
aI0
aF0.09009900990009911
aI1
aI0
aF0.5
aI1
aF0.5
aF0.5
aF0.9540590405122935
aI0
aF0.0946751837194657
aF0.9999504545004549
aI0
aF0.5
aF0.5
aI0
aF0.40909643952122715
aF0.9500004545454506
aI0
aF9.000099009909881e-08
aI1
aI0
aF0.5
aF0.5
aI0
aF0.5
aF0.5
aI0
aF0.5
aF0.5
aI0
aF0.5
aF0.5
aF0.5
aF0.5
aF0.910977475122102
aF0.5
aF0.008165837735295486
aF0.9137300471739905
aF0.5
aF0.5
aF0.5
aF0.5
aF0.7542012261968705
aF0.9919729656161846
aF0.5
aF0.5491404827196341
aI1
aF0.9549455798268145
aF0.5
aF1.0
aF0.5
aI0
aI0
aI0
aI0
aI0
aI0
aI0
aI0
aF0.5
aF0.8966968145712204
aI1
aF0.5
aF0.09107565439543909
aI1
aF0.08199251936957959
aF0.5
aI1
aF0.5
aF0.1157993986214168
aI1
aF0.10729793371581564
aF0.5
aF0.5
aF0.09009999099999988
aF1.0
aI1
aF0.5
aI0
aI1
aI0
aI0
aI1
aI0
aI0
aI1
aF0.5
aF0.5
aF0.5
aF0.5
aF0.5
aF0.5400499153144461
aF0.5
aF0.5
aF0.5
aF0.5
aF0.5
aF0.999909999999919
aF0.5
aF0.4991508995099005
aI1
aF0.5
aF0.5
aF0.5
aF0.5
aI0
aI0
aI0
aI0
aI0
aI0
aI0
aI0
aF0.5
aF0.939331839945463
aF0.9495158329681483
aF0.5
aF0.9002437254449711
aF0.5
aF0.9991729801808912
aF0.5
aF0.9991728239385753
aF0.5
aI1
aI1
aI1
aI1
aF0.5
aI1
aI1
aI1
aI1
aI0
aI0
aI0
aI0
aI0
aI0
aI0
aI0
aF0.5
aF0.9017677969579079
aI1
aF0.9909721180459876
aF0.5
aI1
aF0.90990900990909
aF0.9999999991809093
aI1
aF0.5
aI1
aF0.5
aI1
aI1
aF0.5
aI1
aI1
aF0.5
aI1
aI0
aI1
aI0
aI0
aI1
aI0
aI0
aI1
aF0.5
aF0.5
aF0.13585561775030952
aF0.5
aF0.9046035990549995
aF0.4995450450454545
aF0.5
aF0.5
aF0.5
aF0.5
aI1
aI1
aI1
aI1
aF0.5
aI1
aI1
aI1
aI1
aI0
aI0
aI0
aI0
aI0
aI0
aI0
aI0
aF0.5
aF0.5
aF0.5
aI0
aF0.5
aF0.9099999999990901
aI0
aF0.5
aF0.5
aI0
aF0.5
aF0.9910810729896646
aI0
aF0.00985679632881549
aI1
aI0
aF0.5
aF0.5
aI0
aI0
aI0
aF0.5
aI0
aI0
aF0.5
aI0
aI0
aF0.5
aF0.5
aI1
aI0
aF0.9009446859874262
aI1
aI0
aF0.5
aI1
aI0
aF0.918000066303425
aI1
aI0
aF0.00045049545495045445
aF0.5
aI0
aF0.5
aI1
aI0
aI0
aI1
aF0.5
aI0
aI1
aF0.5
aI0
aI1
aF0.5
aI0
aI0
aF0.5
aI0
aI0
aF0.5
aI0
aI0
aF0.5
aI0
aI0
aF0.5
aI0
aI1
aF0.5
aI0
aI0
aF0.5
aF0.5
aF0.5
aF0.5
aF0.5
aF0.5
aF0.5
aF0.5
aF0.5
aF0.5
aF0.5
aF0.5
aF0.5
aF0.5
aF0.9732892833985454
aF0.5
aF0.5
aF0.5
aF0.5
aF0.5
aF0.8788639450451152
aF0.5
aF0.17051478498385053
aI1
aF0.5
aF0.5
aF0.5
aF0.5
aF0.5
aF0.5
aF0.5
aF0.5
aF0.5
aF0.5
aF0.5
aF0.5
aI0
aF0.5
aF0.09836660098184155
aF0.5
aF0.9030371518011296
aF0.008117755237531887
aF0.5
aF0.5
aF0.5
aF0.5
aF0.9245639667856732
aF0.9993697038923546
aF0.5
aF0.9097483748627576
aI1
aF0.9097217198191709
aF0.5
aF0.4999135640365882
aF0.5
aF0.5
aF0.5
aF0.5
aF0.5
aF0.0
aF0.5
aF0.5
aF0.5
aI0
aF0.5
aF0.5
aI0
aF0.5
aF0.5
aI0
aF0.5
aF0.5
aI0
aF0.5
aF0.5
aI0
aF0.5
aI1
aI0
aF0.5
aF0.5
aI0
aF0.5
aF0.5
aI0
aF0.5
aF0.5
aI0
aF0.5
aF0.5
aF0.5
aF0.5
aF0.9756896454445747
aF0.5
aF0.8373789385471243
aF0.9835046535330133
aF0.5
aF0.5
aF0.5
aF0.5
aF0.697800987787816
aF0.9175798439737546
aF0.5
aF0.0990828848607821
aI1
aF0.9075618082959804
aF0.5
aF0.45826249890054443
aF0.5
aF0.5
aF0.5
aF0.5
aF0.5
aF0.9917190173619926
aF0.5
aF0.5
aF0.5
aI0
aF0.9118124308183119
aF0.855941736857
aF0.5
aF0.9973637817646571
aF0.5
aF0.999100089835396
aF0.5
aF0.9950041363622234
aF0.5
aF0.74983608447446
aF0.5
aF0.9991818999999894
aF0.5
aI1
aF0.9999090999999999
aF0.541813910949825
aF0.49549995499995503
aF0.5
aF0.5
aF0.09999982899008364
aF0.5
aF0.09990900099908995
aF0.0
aF0.5
aF0.5
aF0.5
aI0
aF0.5
aF0.5
aI0
aF0.5
aF0.9999010098017111
aI0
aF0.5
aF0.5
aI0
aF0.5
aF0.9995454544998412
aI0
aF0.9099099999909901
aI1
aI0
aF0.5
aF0.5
aI0
aF0.5
aF0.5
aI0
aF0.5
aF0.5
aI0
aF0.5
aF0.5
aF0.5
aF0.5
aF0.5
aI0
aF0.5
aF0.5
aI0
aF0.5
aF0.5
aI0
aF0.5
aF0.5
aI0
aF0.5
aI1
aI0
aF0.5
aF0.5
aI0
aI0
aI0
aF0.5
aI0
aI0
aF0.5
aI0
aI0
aF0.5
aF0.5
aF0.5
aI0
aF0.5
aF0.9010701109712709
aI0
aF0.5
aF0.5
aI0
aF0.5
aF0.9959369053140412
aI0
aF0.9090908037019788
aI1
aI0
aF0.5
aF0.5
aI0
aI0
aI0
aF0.5
aI0
aI0
aF0.5
aI0
aI0
aF0.5
aF0.5
aF0.5
aF0.5
aF0.5
aF0.5
aF0.5
aF0.5
aF0.5
aF0.5
aF0.5
aF0.5
aF0.5
aF0.5
aI1
aF0.5
aF0.5
aF0.5
aF0.5
aI0
aI0
aF0.5
aI0
aI0
aF0.5
aI0
aI0
aF0.5
aF0.5
aF0.8015291873894939
aF0.5
aF0.09741653135694084
aF0.9982860441567281
aF0.5
aF0.5
aF0.5
aF0.5
aF0.11979799981272993
aF0.8863267282901204
aF0.5
aF0.08918034422767784
aI1
aF0.0
aF0.5
aF0.05408518092222464
aF0.5
aF0.5
aF0.5
aF0.5
aF0.5
aF0.18081008011674815
aF0.5
aF0.5
aF0.5
aI0
aF0.13210033755097217
aF0.038240034286608486
aF0.5
aF0.8151897207628231
aF0.5
aF0.09000629235396573
aF0.5
aF0.9144131410449372
aF0.5
aF0.999928011365601
aF0.5
aF0.9999827919917279
aF0.5
aI1
aF0.0
aF0.9950409536321332
aF0.004999950049545454
aF0.5
aF0.5
aF0.0009172080000027887
aF0.5
aF0.9053563182797497
aF0.0
aF0.5
aF0.5
aF0.5
aI0
aF0.5
aF0.5
aI0
aF0.5
aF0.9999990991980908
aI0
aF0.5
aF0.5
aI0
aF0.5
aF0.991035500130431
aI0
aF0.9810991890836191
aI1
aI0
aF0.5
aF0.5
aI0
aF0.5
aF0.5
aI0
aF0.5
aF0.5
aI0
aF0.5
aF0.5
aF0.5
aF0.8967888011186984
aF0.9933316957169108
aF0.5
aF0.9990946393843313
aF0.5
aF0.9909909900991
aF0.5
aF0.5949950414413909
aF0.5
aF0.03930318733979832
aF0.5
aF0.017127909017199155
aF0.5
aI1
aF0.0
aF0.4190862713425337
aF0.4545450000454951
aF0.5
aF0.5
aF0.18983636754905764
aF0.5
aF0.9999837973730495
aF0.09999909999090983
aF0.5
aF0.5
aF0.5
aI0
aI1
aI1
aI1
aI1
aI1
aI1
aI1
aI1
aI1
aI1
aI1
aI1
aI1
aF0.5
aI1
aI1
aI1
aI1
aI1
aI1
aI1
aI1
aI1
aI1
aI1
aI1
aI1
aF0.5
aF0.09414039160053383
aI0
aF0.9819179938879575
aF0.999000099090001
aI0
aF0.5
aF0.5
aI0
aF0.04873998164805349
aF0.0495495499999955
aI0
aF0.0
aI1
aI0
aF0.5
aF0.5
aI0
aF0.5
aF0.5
aI0
aF0.5
aF1.0
aI0
aF0.5
aF0.5
aF0.5
aF0.5
aF0.5
aI0
aF0.5
aF0.9909091088272
aI0
aF0.5
aF0.5
aI0
aF0.5
aF0.9417370518878156
aI0
aF0.18908099298901815
aI1
aI0
aF0.5
aF0.5
aI0
aI0
aI0
aF0.5
aI0
aI0
aF0.5
aI0
aI0
aF0.5
aF0.5
aF0.04139586087128724
aI0
aF0.0
aF0.0
aI0
aF0.5
aF0.5
aI0
aF0.044959584698114674
aF0.045454500000004505
aI0
aF0.0
aI1
aI0
aF0.5
aF0.5
aI0
aI0
aI0
aF0.5
aI0
aI0
aF0.5
aI0
aI0
aF0.5
aF0.5
aF0.5
aF0.5
aF0.5
aF0.5
aF0.5
aF0.5
aF0.5
aF0.5
aF0.5
aF0.5
aF0.5
aF0.5
aI1
aF0.5
aF0.5
aF0.5
aF0.5
aI0
aI0
aF0.5
aI0
aI0
aF0.5
aI0
aI0
aF0.5
aF0.5
aF0.5
aF0.5
aF0.5
aF0.5
aF0.5
aF0.5
aF0.5
aF0.5
aF0.5
aF0.5
aF0.5
aF0.5
aI1
aF0.5
aF0.5
aF0.5
aF0.5
aI0
aI0
aI0
aI0
aI0
aI0
aI0
aI0
aF0.5
aF0.5
aF0.5
aF0.5
aF0.5
aF0.09009828918909821
aF0.5
aF0.5
aF0.5
aF0.5
aF0.5
aF0.99998654279572
aF0.5
aF0.9909925381080935
aI1
aF0.5
aF0.5
aF0.5
aF0.5
aI0
aI0
aI0
aI0
aI0
aI0
aI0
aI0
aF0.5
aF0.5
aF0.5
aI0
aF0.5
aF0.5
aI0
aF0.5
aF0.5
aI0
aF0.5
aF0.5
aI0
aF0.5
aI1
aI0
aF0.5
aF0.5
aI0
aI0
aI0
aF0.5
aI0
aI0
aF0.5
aI0
aI0
aF0.5
aF0.5
aF0.5
aF0.5
aF0.5
aF0.09999009999990005
aF0.5
aF0.5
aF0.5
aF0.5
aF0.5
aF0.0985600895455
aF0.5
aF0.1810809918091898
aI1
aF0.5
aF0.5
aF0.5
aF0.5
aI0
aI0
aI0
aI0
aI0
aI0
aI0
aI0
aF0.5
aF0.5
aF5.322641858832964e-06
aF0.5
aF0.009099090972100626
aF0.0
aF0.5
aF0.5
aF0.5
aF0.5
aF0.8271667484775326
aF0.004950005
aF0.5
aF0.9090090900009001
aI1
aF1.0
aF0.5
aF0.5
aF0.5
aI0
aI0
aI0
aI0
aI0
aI0
aI0
aI0
aF0.5
aF0.5
aF0.5
aI0
aF0.5
aF0.5
aI0
aF0.5
aF0.5
aI0
aF0.5
aF0.5
aI0
aF0.5
aI1
aI0
aF0.5
aF0.5
aI0
aI0
aI0
aF0.5
aI0
aI0
aF0.5
aI0
aI0
aF0.5
aF0.5
aF0.5
aI0
aF0.5
aF0.5
aI0
aF0.5
aF0.5
aI0
aF0.5
aF0.5
aI0
aF0.5
aI1
aI0
aF0.5
aF0.5
aI0
aF0.5
aF0.5
aF0.5
aF0.5
aF0.5
aF0.5
aF0.5
aF0.5
aF0.5
aF0.5
aF0.5
aI0
aF0.5
aF0.5
aI0
aF0.5
aF0.5
aI0
aF0.5
aF0.5
aI0
aF0.5
aI1
aI0
aF0.5
aF0.5
aI0
aF0.5
aF0.5
aF0.5
aF0.5
aF0.5
aF0.5
aF0.5
aF0.5
aF0.5
aI0
aI0
aF0.5
aI0
aI0
aF0.5
aI0
aI0
aF0.5
aI0
aI0
aF0.5
aI0
aI1
aF0.5
aI0
aI0
aF0.5
aF0.5
aF0.5
aF0.5
aF0.5
aF0.5
aF0.5
aF0.5
aF0.5
aF0.5
aF0.6019614513911319
aF0.9246685106719312
aF0.5
aF0.30268475838881415
aF0.5
aF0.8204838020935604
aF0.5
aF0.2594484120295308
aF0.5
aF0.8375730065840898
aF0.5
aF0.7827284641241589
aF0.5
aI1
aF0.9988307226714609
aF0.9622294064465768
aF0.9594015237816751
aF0.5
aF0.5
aF0.0888808609548105
aF0.5
aF0.04719477840887898
aF0.4944130443366477
aF0.5
aF0.5
aF0.5
aI0
aF0.5666327727631868
aF0.5
aF0.9818379528067808
aF0.5
aF0.5
aF0.4176856456111179
aF0.9256250737319031
aF0.5578547410296644
aF0.5
aF0.5
aF0.5
aF0.9982791864263685
aF0.5
aI1
aF0.5
aF0.9999873678402601
aF0.5
aF0.9999990032031164
aF0.00011115491153201678
aF0.10483405833355719
aF0.5
aF9.960959014266502e-12
aF0.5
aF0.45458991954080646
aF0.5
aF0.9999745575675558
aI0
aF0.5
aF0.992510915743583
aF0.5
aF0.24602534239403162
aF0.9949808868246045
aF0.5
aF0.5
aF0.5
aF0.5
aF0.5168786264960761
aF0.9903964383515739
aF0.5
aF0.17326492477134114
aI1
aF0.90909994508595
aF0.5
aF0.9954940361139828
aF0.5
aF0.5
aF0.5
aF0.5
aF0.5
aF0.014364540509211626
aF0.5
aF0.5
aF0.5
aI0
aF0.1858384658343727
aF0.5
aF0.9999998678730947
aI1
aI1
aI1
aF0.11255821588208414
aF0.22472989854945125
aF0.5
aF0.5
aF0.5
aF0.9268503660813773
aI1
aF0.5
aI1
aF0.5940472027105523
aF0.5
aF1.0
aF0.16600120177575373
aF0.8727068694639254
aF0.5
aI1
aI1
aI1
aF0.5
aF0.13958818860162792
aI0
aF0.5
aF0.5
aF0.9999917439989039
aI1
aI1
aI1
aF0.023502679981306243
aF0.5
aF0.9189100080910882
aF0.5
aF0.5
aF0.5
aI1
aF0.5
aI1
aF0.5
aF0.5
aF1.0
aF0.8289650795410967
aF0.5
aF0.9099909999000999
aI1
aI1
aI1
aF0.009998912448009892
aF0.09999990909909906
aI0
aF0.6136903966427458
aF0.997932697961952
aF0.5
aI1
aI1
aI1
aF0.5
aF0.9545490578619582
aF0.5
aF0.5904128174692309
aF0.5
aF0.9188207307082811
aI1
aF0.5
aI1
aF0.5495357228419963
aF0.99999950454955
aF0.5
aF0.5
aF0.09013639801597129
aF0.5
aI1
aI1
aI1
aF0.5
aF0.5
aI0
aF0.5
aF0.9316854345900001
aI0
aF0.006221864308983825
aF0.9914018128928028
aI0
aF0.5
aF0.5
aI0
aF0.8248500859425214
aF0.9066148228987753
aI0
aF0.9080348241958441
aI1
aI0
aF0.5
aF0.5004913157645005
aI0
aF0.5
aF0.5
aI0
aF0.5
aF0.44959186213897523
aI0
aF0.5
aF0.5
aF0.5
aF0.7320837029378764
aF0.144248410936909
aI0
aF0.03972233892898115
aF0.5
aI0
aF0.5
aF0.9909145485910528
aI0
aF0.2371740559316332
aF0.5
aI0
aF0.5
aI1
aI0
aF0.4549999196066054
aF0.5450004549504546
aI0
aF0.5
aF0.0009108091637109982
aI0
aF0.0
aF0.0
aI0
aF0.5
aF0.5
aF0.5
aF0.5
aF0.5
aI0
aF0.5
aF0.9995490509452138
aI0
aF0.5
aF0.5
aI0
aF0.5
aF0.5085622807110924
aI0
aF0.0999155872775046
aI1
aI0
aF0.5
aF0.5
aI0
aF0.5
aF0.5
aI0
aF0.5
aF0.5
aI0
aF0.5
aF0.5
aF0.5
aF0.9798428553017113
aF0.5
aF0.8728514208174538
aF0.5
aF0.5
aF0.09365239494096012
aF0.5921319596743001
aF0.9630839818562696
aF0.5
aF0.5
aF0.5
aF0.8303173407739832
aF0.5
aI1
aF0.5
aF0.958677358425341
aF0.5
aF0.9999901073629064
aF0.6521184548039713
aF0.9918175590648547
aF0.5
aF0.18809751066855274
aF0.5
aF0.1445440371033379
aF0.5
aF0.9594945103915544
aI0
aF0.5
aF0.5
aF0.014667533616477157
aF0.5
aF0.5
aF0.5
aF0.9954907125658505
aF0.5
aF0.9099099901899892
aF0.5
aF0.5
aF0.5
aF0.5
aI1
aF0.5
aF0.5
aF0.5
aF0.999999091
aF0.8159661273892433
aF0.5
aF0.04509499005099371
aF0.5
aF0.5
aF0.499549995450495
aF0.09901018088936353
aF1.0
aI0
aF0.989628595444217
aF0.5454624266161607
aF0.5
aF0.8360673553856569
aF0.5
aF0.9090099083529893
aF0.5
aF0.5
aF0.5
aF0.1084860095775757
aF0.5
aF0.017926315031588064
aF0.5
aI1
aF0.0
aF0.5044967960420241
aF0.5
aF0.5
aF0.5
aF0.9054629159169698
aF0.5
aF0.9103243547258371
aF0.9950450004950004
aF0.5
aF0.5
aF0.5
aI0
aF0.5
aF0.5
aF0.9999999999963519
aI1
aI1
aI1
aF0.9995820093618266
aF0.5
aF0.9999999999990983
aF0.5
aF0.5
aF0.5
aI1
aF0.5
aI1
aF0.5
aF0.5
aF1.0
aF0.9180169688669779
aF0.5
aF0.9990911783781911
aI1
aI1
aI1
aF0.09590036914048028
aF0.99999500450005
aI0
aI1
aI1
aI1
aF0.5
aF0.5
aF0.5
aI1
aI1
aI1
aI1
aI1
aI1
aF0.5
aF0.5
aF0.5
aI1
aI1
aI1
aI1
aI1
aI1
aF0.5
aF0.5
aF0.5
aI1
aI1
aI1
aF0.9937640401682291
aF0.5
aF0.9982073078929893
aI1
aI1
aI1
aF0.9540954087314902
aF0.5
aF0.5
aF0.5
aF0.5
aF0.0990090099900991
aI1
aF0.5
aI1
aF0.9545454500000454
aF0.5
aF1.0
aF0.9549027753005022
aF0.9545450004950046
aF0.5
aI1
aI1
aI1
aF0.5
aF0.5
aI0
aF0.05040066429061768
aF0.544225593930135
aI0
aF0.0036534919315515738
aF0.5
aI0
aF0.5
aF0.5004054950861128
aI0
aF5.763964483138616e-05
aF0.5
aI0
aF0.5
aI1
aI0
aF0.08688971239282017
aF0.5
aI0
aF0.5
aF0.455526532134836
aI0
aF0.040589613400180274
aF0.4995004549950045
aI0
aF0.5
aF0.5
aF0.5
aF0.8102849680497058
aF0.5
aI0
aF0.5
aF0.5
aI0
aF0.5012989646894246
aF0.9950004500495
aI0
aF0.5
aF0.5
aI0
aF0.5
aI1
aI0
aF0.454950049999545
aF0.5
aI0
aF0.9000893532324308
aF0.999909009009909
aI0
aF0.0
aF0.5
aI0
aF0.5
aF1.0
aF0.5
aF0.5
aF0.545904909549042
aI0
aF0.1039129614055953
aF0.9549549999549505
aI0
aF0.5
aF0.5
aI0
aF0.019404863548035528
aF0.5000499995499954
aI0
aF0.00099999090900991
aI1
aI0
aF0.5
aF0.5
aI0
aF0.5
aF0.5
aI0
aF0.5
aF0.5
aI0
aF0.5
aF0.5
aF0.5
aF0.5
aF0.2546595517608793
aF0.5
aF0.009924908582917091
aF0.009016699179995424
aF0.5
aF0.5
aF0.5
aF0.5
aF0.9955495557865887
aF0.5839173315230656
aF0.5
aF0.9999999999992296
aI1
aF0.5036856263337657
aF0.5
aF0.9999986063089552
aF0.5
aI0
aI0
aI0
aI0
aI0
aI0
aI0
aI0
aF0.5
aF0.18728319775656632
aF0.9994613062471871
aF0.5
aF0.09899950190936002
aF0.5
aF0.009001179785699823
aF0.5
aF0.5089560299658064
aF0.5
aF0.9821413667451385
aF0.5
aF0.9910000549106086
aF0.5
aI1
aF9.999009090008989e-06
aF0.5504085550403219
aF0.5499950049995005
aF0.5
aI0
aI0
aI0
aI0
aI0
aI0
aI0
aI0
aF0.5
aF0.5
aF0.5
aF0.5
aF0.5
aF0.09999999909909996
aF0.5
aF0.5
aF0.5
aF0.5
aF0.5
aF0.9990179097673156
aF0.5
aF0.5049594950936545
aI1
aF0.5
aF0.5
aF0.5
aF0.5
aI0
aI0
aI0
aI0
aI0
aI0
aI0
aI0
aF0.5
aF0.9999956146157193
aF0.9998156192008306
aF0.5
aI1
aI1
aI1
aF0.5
aF0.9963135901900312
aF0.5
aF0.9995540451638599
aF0.5
aF1.0
aI1
aF0.5
aI1
aF0.9995905404590014
aF0.5499500450499999
aF0.5
aI0
aI0
aI0
aI1
aI1
aI1
aI0
aI0
aF0.5
aF0.999999871286182
aF0.5
aF0.9999999672239797
aI1
aI1
aI1
aF0.1408896582022653
aF0.4545049950049505
aF0.5
aF0.5
aF0.5
aF1.0
aI1
aF0.5
aI1
aF0.9954504549995005
aF0.5
aF1.0
aI0
aI0
aI0
aI1
aI1
aI1
aI0
aI0
aF0.5
aF0.5
aF0.9999987813416364
aF0.5
aI1
aI1
aI1
aF0.5
aF0.5
aF0.5
aF0.9995901236281091
aF0.99999954954545
aF0.5
aI1
aF0.5
aI1
aF0.5
aF1.0
aF0.5
aI0
aI0
aI0
aI1
aI1
aI1
aI0
aI0
aF0.5
aF0.5
aF0.5
aI0
aF0.5
aF0.8999928098136732
aI0
aF0.5
aF0.5
aI0
aF0.5
aF0.9909926297379166
aI0
aF0.09009999747891262
aI1
aI0
aF0.5
aF0.5
aI0
aI0
aI0
aF0.5
aI0
aI0
aF0.5
aI0
aI0
aF0.5
aF0.5
aF0.9999989345135147
aI0
aF0.820719827254089
aF0.09999999090090095
aI0
aF0.5
aF0.5
aI0
aF0.17200900889379722
aF1.0
aI0
aF0.09000099999909994
aI1
aI0
aF0.5
aF1.0
aI0
aI0
aI0
aF0.5
aI0
aI0
aF0.5
aI0
aI0
aF0.5
aI0
aI0
aF0.5
aI0
aI0
aF0.5
aI0
aI0
aF0.5
aI0
aI0
aF0.5
aI0
aI1
aF0.5
aI0
aI0
aF0.5
aF0.5
aF0.5
aF0.5
aF0.5
aF0.5
aF0.5
aF0.5
aF0.5
aF0.5
aF0.8935477583875493
aF0.5
aF0.10562939504999311
aF0.5
aF0.5
aF0.9024572894469526
aF0.2871903579111124
aF0.505869326283951
aF0.5
aF0.5
aF0.5
aF0.007725014684784412
aF0.5
aI1
aF0.5
aF0.9116219379823756
aF0.5
aF0.9018915391900506
aF0.09057090966784909
aF0.08914516153911922
aF0.5
aF0.8927735497496029
aF0.5
aF0.9918098208720103
aF0.5
aF0.5004099482502664
aI0
aF0.5
aI1
aF0.8256505463177466
aF0.5
aI1
aF0.5
aF0.9270998652203762
aI1
aF0.9082073520026247
aF0.5
aI1
aF0.5
aF0.5
aF0.5
aF0.5
aF0.5
aI1
aF0.99999990990909
aF0.0008191532702381725
aI1
aF0.0
aF0.5
aI1
aF0.0
aF0.0010800991899007524
aI1
aI0
aF0.9093185474785298
aF0.5045631266688816
aF0.5
aF0.8163261423086757
aF0.5
aF0.9017490530326063
aF0.5
aF0.5004994526334463
aF0.5
aF0.503256874706818
aF0.5
aF0.8323735196392373
aF0.5
aI1
aF0.4999954950495495
aF0.9509049184997018
aF0.9999995045499955
aF0.5
aF0.5
aF0.0540405373267388
aF0.5
aF0.549586768640734
aF0.00045499504504954973
aF0.5
aF0.5
aF0.5
aI0
aF0.5
aF0.5
aF0.9985418554616763
aI1
aI1
aI1
aF0.2539191906993232
aF0.5
aF0.9091883716299718
aI1
aI1
aI1
aF0.5
aF0.5
aF0.5
aI1
aI1
aI1
aF0.09988468940137762
aF0.5
aF0.9983799872210141
aI1
aI1
aI1
aF0.4500401448960198
aF0.04545499950000048
aI0
aF0.5
aI1
aF0.5
aI1
aF0.5
aI1
aF0.5
aI1
aF0.9099000999909991
aI1
aF0.5
aI1
aF0.5
aF0.5
aF0.5
aI1
aF0.5
aI1
aF0.5
aI1
aF0.0
aI1
aF0.5
aI1
aF0.0
aI1
aI0
aF0.9999075026681086
aF0.5
aF1.0
aI1
aI1
aI1
aF0.9999993900224966
aF0.9999999545495455
aF0.5
aI1
aI1
aI1
aF0.5
aF0.5
aF0.5
aI1
aI1
aI1
aF0.554008559738376
aF0.4995045004504545
aF0.5
aI1
aI1
aI1
aF0.5
aF0.5
aI0
aF0.03908820502071669
aF0.9378700990454547
aI0
aF6.92703490610102e-05
aF0.5
aI0
aF0.5
aF0.9910002697303186
aI0
aF0.4102068051680721
aF0.5
aI0
aF0.5
aI1
aI0
aF0.577853226200411
aF0.5450004545000455
aI0
aF0.5
aF0.5846495588885918
aI0
aF0.008960437268095554
aF0.499954500499545
aI0
aF0.5
aF0.5
aF0.5
aF0.01159616566105034
aI1
aI0
aF0.5
aI1
aI0
aF0.917207037170994
aI1
aI0
aF0.5
aI1
aI0
aF0.5
aF0.5
aI0
aF0.9099909009009001
aI1
aI0
aF0.010728089910999022
aI1
aI0
aF0.0
aI1
aI0
aF0.5
aI1
aF0.5
aF0.5
aF0.4590852259521218
aI0
aF0.4135590527683583
aF0.454999549995455
aI0
aF0.5
aF0.5
aI0
aF0.4504091350635741
aF0.49954504545045
aI0
aF0.0
aI1
aI0
aF0.5
aF0.5
aI0
aF0.5
aF0.5
aI0
aF0.5
aF0.5
aI0
aF0.5
aF0.5
aF0.5
aF0.5
aF0.5
aF0.8857462115236
aF0.5
aF0.5
aF0.5
aF0.5946074279315529
aF0.5
aF0.09990000909795704
aF0.5
aF0.5
aF0.5
aF0.5
aI1
aF0.5
aF0.5
aF0.5
aF0.09900999090990004
aF0.615958457349085
aF0.5
aF0.9010801887289327
aF0.5
aF0.5
aF0.990999999990099
aF0.5765445468516646
aF0.954999995450045
aI0
aF0.5
aI1
aF0.5
aF0.5
aI1
aF0.5
aF0.5
aI1
aF0.0
aF0.5
aI1
aF0.5
aF0.5
aF0.5
aF0.5
aF0.5
aI1
aF0.5
aF0.5
aI1
aF0.0
aF0.5
aI1
aF0.5
aF0.90000000999991
aI1
aI0
aF0.9868061994773478
aF0.5
aF0.9009990164541255
aF0.5
aF0.5
aF0.9900900909099009
aF0.5495940370440846
aF0.5
aF0.5
aF0.5
aF0.5
aF0.0009909099000900909
aF0.5
aI1
aF0.5
aF0.9954950000495005
aF0.5
aF1.0
aF0.9941531904050463
aF0.5
aF0.5
aF0.9995045049954505
aF0.5
aF1.0
aF0.5
aF0.5
aI0
aF0.5
aF0.5
aF0.5
aI1
aI1
aI1
aF0.5
aF0.5
aF0.9999999990901
aI1
aI1
aI1
aF0.5
aF0.5
aF0.5
aI1
aI1
aI1
aF0.5
aF0.5
aF0.90990999990001
aI1
aI1
aI1
aF0.0004999999504995004
aF0.5
aI0
aI1
aF0.5
aI1
aF0.5
aF0.5
aF0.5
aI1
aF0.5
aI1
aF0.5
aF0.5
aF0.5
aF0.5
aF0.5
aF0.5
aF0.5
aF0.5
aF0.5
aI1
aF0.5
aI1
aF0.5
aF0.5
aF0.5
aI1
aF0.5
aI1
aF0.5
aF0.5
aF1.0
aI1
aI1
aI1
aF0.999999504954545
aF0.5
aF1.0
aI1
aI1
aI1
aF0.5
aF0.5
aF0.5
aI1
aI1
aI1
aF0.504504954950455
aF0.5
aF1.0
aI1
aI1
aI1
aF0.5
aF0.5
aI0
aF0.4209833226085885
aF0.5
aI0
aF0.5
aF0.5
aI0
aF0.10069634164407572
aF0.5004999500499996
aI0
aF0.5
aF0.5
aI0
aF0.5
aI1
aI0
aF0.04549504994999998
aF0.5
aI0
aF0.041787503943503446
aF0.5495049999995045
aI0
aF0.4545004500499955
aF0.5
aI0
aF0.5
aF1.0
aF0.5
aF0.5
aI1
aI0
aF0.5
aI1
aI0
aF0.09990909999099096
aI1
aI0
aF0.5
aI1
aI0
aF0.5
aF0.5
aI0
aF0.5
aI1
aI0
aF0.0009099999000090082
aI1
aI0
aF0.5
aI1
aI0
aF1.0
aI1
aF0.5
aF0.458959955437355
aF0.5
aI0
aF0.4549504504995495
aF0.5
aI0
aF0.5
aF0.5
aI0
aF0.45450495004545455
aF0.5
aI0
aF0.5
aI1
aI0
aF0.5
aF0.5
aI0
aF0.5
aF0.5
aI0
aF0.5
aF0.5
aI0
aF0.5
aF0.5
aF0.5
aF0.1075316345707843
aF0.9091132007628738
aF0.5
aF4.0942351624997426e-07
aF0.5
aF0.41391811445768706
aF0.5
aF0.9909910081736371
aF0.5
aF0.9982071644425748
aF0.5
aF0.09129757234716145
aF0.5
aI1
aF0.49995495450004956
aF1.0
aF1.0
aF0.5
aI0
aI0
aI0
aI0
aI0
aI0
aI0
aI0
aF0.5
aF0.9761627003796494
aI1
aF0.09171107172366644
aF0.5
aI1
aF0.0
aF0.9189999795610028
aI1
aF0.5
aF0.5
aI1
aF0.0009099909009999008
aF0.5
aF0.5
aF0.5
aF1.0
aI1
aF1.0
aI0
aI1
aI0
aI0
aI1
aI0
aI0
aI1
aF0.5
aF0.5
aF0.8190892549705304
aF0.5
aF0.9041314522183671
aF0.0
aF0.5
aF0.5
aF0.5
aF0.5
aF0.9909819018280316
aF0.0009000000000091001
aF0.5
aF0.04545000499954993
aI1
aF0.5
aF0.5
aF1.0
aF0.5
aI0
aI0
aI0
aI0
aI0
aI0
aI0
aI0
aF0.5
aF0.9915491518901622
aF0.5
aF0.18100898298106471
aI1
aI1
aI1
aF0.18082665009190135
aF0.09990009090099095
aF0.5
aI1
aI1
aI1
aF0.5
aF0.5
aF0.5
aI1
aI1
aI1
aI0
aI0
aI0
aI1
aI1
aI1
aI0
aI0
aF0.5
aF0.5
aI1
aF0.9999999909000999
aI1
aF0.5
aI1
aF0.90999999009091
aI1
aF1.0
aI1
aF0.5
aI1
aF0.5
aF0.5
aF0.5
aI1
aF0.5
aI1
aI0
aI1
aI0
aI1
aI0
aI1
aI0
aI1
aF0.5
aF0.9999918990991981
aF0.09999099909009912
aF0.5
aI1
aI1
aI1
aF0.5
aF1.0
aF0.5
aI1
aI1
aI1
aF0.5
aF0.5
aF0.5
aI1
aI1
aI1
aI0
aI0
aI0
aI1
aI1
aI1
aI0
aI0
aF0.5
aF0.5
aF0.990990918107371
aI0
aF0.0
aF0.0
aI0
aF0.5
aF0.5
aI0
aF0.9016283693962969
aF0.9900909909999092
aI0
aF0.0
aI1
aI0
aF0.5
aF1.0
aI0
aI0
aI0
aF0.5
aI0
aI0
aF0.5
aI0
aI0
aF0.5
aF0.9918090008297298
aI1
aI0
aF0.0
aI1
aI0
aF0.5
aI1
aI0
aF0.9909990009009901
aI1
aI0
aF0.5
aF0.5
aI0
aF1.0
aI1
aI0
aI0
aI1
aF0.5
aI0
aI1
aF0.5
aI0
aI1
aF0.5
aI0
aI0
aF0.5
aI0
aI0
aF0.5
aI0
aI0
aF0.5
aI0
aI0
aF0.5
aI0
aI1
aF0.5
aI0
aI0
aF0.5
aF0.5
aF0.5
aF0.5
aF0.5
aF0.5
aF0.5
aF0.5
aF0.5
aF0.5
aF0.5
aF0.543788270174558
aF0.5
aF0.8580795226173129
aF0.12050015443763695
aF0.5
aF0.5
aF0.5
aF0.5
aF0.26988436022359397
aF0.9536236633463653
aF0.5
aF0.26272084115565375
aI1
aF0.999899469551863
aF0.5
aF0.5
aF0.5
aF0.5
aF0.5
aF0.5
aF0.5
aF0.9997470883972631
aF0.5
aF0.5
aF0.5
aI0
aF0.607301159883102
aF0.5733059648325683
aF0.5
aF0.9823870485228652
aF0.5
aF0.9902554660312568
aF0.5
aF0.5004990501224037
aF0.5
aF0.27082536302366367
aF0.5
aF0.18990998279199278
aF0.5
aI1
aF0.9999900909009901
aF0.5450040941973007
aF0.5
aF0.5
aF0.5
aF0.010547216913599803
aF0.5
aF0.1349964553958235
aF0.0
aF0.5
aF0.5
aF0.5
aI0
aF0.5
aF0.5
aI0
aF0.5
aF1.0
aI0
aF0.5
aF0.5
aI0
aF0.5
aF0.5005931989549142
aI0
aF0.18099991065771004
aI1
aI0
aF0.5
aF0.5
aI0
aF0.5
aF0.5
aI0
aF0.5
aF0.5
aI0
aF0.5
aF0.5
aF0.5
aF0.3300199836977926
aF0.5117486600199661
aF0.5
aI1
aI1
aI1
aF0.5
aF0.9459958546535072
aF0.5
aF0.9504615908687473
aF0.5
aF0.9918027189990191
aI1
aF0.5
aI1
aF0.5049459958823752
aF0.5
aF0.5
aF0.5
aF0.991889388828982
aF0.5
aI1
aI1
aI1
aF0.5
aF0.5
aI0
aF0.9999999108265433
aF0.5
aF1.0
aI1
aI1
aI1
aF0.5459086035964283
aF0.9954500499995496
aF0.5
aF0.5
aF0.5
aF1.0
aI1
aF0.5
aI1
aF0.549504549500045
aF0.5
aF1.0
aF0.9108821717290638
aF0.9009900999099909
aF0.5
aI1
aI1
aI1
aF0.5
aF1.0
aI0
aF0.5
aF0.9986945499541764
aI0
aI1
aI1
aI1
aF0.5
aF0.5
aI0
aF0.5048690039608961
aF0.5
aI0
aI1
aF0.5
aI1
aF0.5
aF0.5
aI0
aF0.5
aF0.5
aI0
aI1
aI1
aI1
aF0.5
aF0.5
aF0.5
aF0.5
aF0.5
aI0
aF0.5
aF0.8937027811091357
aI0
aF0.5
aF0.5
aI0
aF0.5
aF0.9950585078340828
aI0
aF0.998926488795626
aI1
aI0
aF0.5
aF0.5
aI0
aI0
aI0
aF0.5
aI0
aI0
aF0.5
aI0
aI0
aF0.5
aF0.5
aF0.5416984710739317
aI0
aF0.9892637118997426
aF0.99900900990001
aI0
aF0.5
aF0.5
aI0
aF0.0049649388381452705
aF0.5450049545045454
aI0
aF0.9990909009909998
aI1
aI0
aF0.5
aF0.5
aI0
aI0
aI0
aF0.5
aI0
aI0
aF0.5
aI0
aI0
aF0.5
aF0.5
aF0.5
aF0.5
aF0.5
aF0.5
aF0.5
aF0.5
aF0.5
aF0.5
aF0.5
aF0.5
aF0.5
aF0.5
aI1
aF0.5
aF0.5
aF0.5
aF0.5
aI0
aI0
aF0.5
aI0
aI0
aF0.5
aI0
aI0
aF0.5
aF0.10744554102804371
aF0.26196805751099106
aF0.5
aF0.852392791598596
aF0.5
aF0.009044996085373583
aF0.5
aF0.5049949069530443
aF0.5
aF0.16781604658702487
aF0.5
aF0.09090097395657071
aF0.5
aI1
aF0.0
aF0.9540986130493532
aF0.5
aF0.5
aF0.5
aF0.9181065414576618
aF0.5
aF0.5444723243649866
aF0.09999099090990904
aF0.5
aF0.5
aF0.5
aI0
aF0.9384918934282844
aF0.5
aF0.4956615953641388
aF0.5
aF0.5
aF0.450049549995045
aF0.9999874236882659
aF0.9954500495495
aF0.5
aF0.5
aF0.5
aF0.09990990000009004
aF0.5
aI1
aF0.5
aF0.9999954954549505
aF0.5
aF1.0
aF0.9123217158730293
aF0.900909009901
aF0.5
aF0.049995045454995446
aF0.5
aF0.5
aF0.5
aF1.0
aI0
aF0.5
aF0.9545507690487441
aI0
aF0.10734579983620529
aF1.0
aI0
aF0.5
aF0.5
aI0
aF0.017964949323617474
aF0.95000495499545
aI0
aF0.009000909090099887
aI1
aI0
aF0.5
aF0.5
aI0
aF0.5
aF0.5
aI0
aF0.5
aF1.0
aI0
aF0.5
aF0.5
aF0.5
aF0.9874721844061215
aF0.5
aF0.991000898344001
aI1
aI1
aI1
aF0.9995418140535051
aF0.500499995005
aF0.5
aF0.5
aF0.5
aF0.9909009999909009
aI1
aF0.5
aI1
aF0.9999995450499954
aF0.5
aF1.0
aF1.0
aF1.0
aF0.5
aI1
aI1
aI1
aF0.5
aF1.0
aI0
aI1
aI1
aI1
aF0.5
aF0.5
aF0.5
aI1
aI1
aI1
aI1
aI1
aI1
aF0.5
aF0.5
aF0.5
aI1
aI1
aI1
aI1
aI1
aI1
aF0.5
aF0.5
aF0.5
aI1
aI1
aI1
aF0.9590410452691278
aF0.9995450495049955
aI0
aI1
aI1
aI1
aF0.5
aF0.5
aI0
aF0.499549999505
aF0.5
aI0
aI1
aF0.5
aI1
aF0.5
aF0.5
aI0
aF0.5
aF1.0
aI0
aI1
aI1
aI1
aF0.5
aF0.5
aF0.5
aF0.5
aF0.9462327696881717
aI0
aF0.00189155618101889
aF0.900000990909009
aI0
aF0.5
aF0.5
aI0
aF0.0496387084123885
aF0.9549549549950045
aI0
aF0.09999090099910002
aI1
aI0
aF0.5
aF0.5
aI0
aI0
aI0
aF0.5
aI0
aI0
aF0.5
aI0
aI0
aF0.5
aF0.04094599915201147
aF0.49549545045450044
aI0
aF0.0
aF0.5
aI0
aF0.5
aF0.5
aI0
aF0.0004500495499500049
aF0.5
aI0
aF0.5
aI1
aI0
aF0.5
aF0.5
aI0
aI0
aI0
aF0.5
aI0
aI0
aF0.5
aI0
aI0
aF0.5
aF0.5
aF0.5
aF0.5
aF0.5
aF1.0
aF0.5
aF0.5
aF0.5
aF0.5
aF0.5
aF1.0
aF0.5
aF1.0
aI1
aF0.5
aF0.5
aF0.5
aF0.5
aI0
aI0
aF0.5
aI0
aI0
aF0.5
aI0
aI0
aF0.5
aF0.5
aF0.5
aF0.5
aF0.5
aF0.9092637172884356
aF0.5
aF0.5
aF0.5
aF0.5
aF0.5
aF0.5494554905089555
aF0.5
aF1.0
aI1
aF0.5
aF0.5
aF0.5
aF0.5
aI0
aI0
aI0
aI0
aI0
aI0
aI0
aI0
aF0.5
aF0.5
aF0.5049024077112197
aF0.5
aF0.9909011710874871
aF0.990900090999099
aF0.5
aF0.5
aF0.5
aF0.5
aF0.5458523364964041
aF0.5499504950045
aF0.5
aF1.0
aI1
aF1.0
aF0.5
aF0.5
aF0.5
aI0
aI0
aI0
aI0
aI0
aI0
aI0
aI0
aF0.5
aF0.5
aF0.5
aI0
aF0.5
aF0.5
aI0
aF0.5
aF0.5
aI0
aF0.5
aF0.5
aI0
aF0.5
aI1
aI0
aF0.5
aF0.5
aI0
aI0
aI0
aF0.5
aI0
aI0
aF0.5
aI0
aI0
aF0.5
aF0.5
aF0.5400589676414943
aF0.5
aI1
aI1
aI1
aF0.5
aF0.5
aF0.5
aF0.5045535991485108
aF0.5
aF0.5
aI1
aF0.5
aI1
aF0.5
aF0.5
aF0.5
aI0
aI0
aI0
aI1
aI1
aI1
aI0
aI0
aF0.5
aF0.9503329208409217
aF0.0004954500499954953
aF0.5
aI1
aI1
aI1
aF0.5
aF0.5
aF0.5
aF0.9504504504954505
aF0.5
aF1.0
aI1
aF0.5
aI1
aF0.5
aF0.5
aF0.5
aI0
aI0
aI0
aI1
aI1
aI1
aI0
aI0
aF0.5
aF0.5
aF0.5
aI0
aI1
aI1
aI1
aF0.5
aF0.5
aI0
aF0.5
aF0.5
aI0
aI1
aF0.5
aI1
aF0.5
aF0.5
aI0
aI0
aI0
aF0.5
aI1
aI1
aI1
aI0
aI0
aF0.5
aF0.5
aF0.5
aI0
aF0.5
aF0.5
aI0
aF0.5
aF0.5
aI0
aF0.5
aF0.5
aI0
aF0.5
aI1
aI0
aF0.5
aF0.5
aI0
aF0.5
aF0.5
aF0.5
aF0.5
aF0.5
aF0.5
aF0.5
aF0.5
aF0.5
aF0.5
aF0.5
aI0
aF0.5
aF1.0
aI0
aF0.5
aF0.5
aI0
aF0.5
aF1.0
aI0
aF1.0
aI1
aI0
aF0.5
aF0.5
aI0
aF0.5
aF0.5
aF0.5
aF0.5
aF0.5
aF0.5
aF0.5
aF0.5
aF0.5
aI0
aI0
aF0.5
aI0
aI0
aF0.5
aI0
aI0
aF0.5
aI0
aI0
aF0.5
aI0
aI1
aF0.5
aI0
aI0
aF0.5
aF0.5
aF0.5
aF0.5
aF0.5
aF0.5
aF0.5
aF0.5
aF0.5
aF0.5
aF0.5
aF0.5
aF0.5
aF0.5
aF0.4199284209515869
aF0.5
aF0.5
aF0.5
aF0.5
aF0.5
aF0.2128008252222261
aF0.5
aF0.9097671696814343
aI1
aF0.5
aF0.5
aF0.5
aF0.5
aF0.5
aF0.5
aF0.5
aF0.5
aF0.5
aF0.5
aF0.5
aF0.5
aI0
aF0.5
aF0.07683462145954709
aF0.5
aF0.8130609589977765
aF0.03264091731898949
aF0.5
aF0.5
aF0.5
aF0.5
aF0.012421322218675215
aF0.13459085734407628
aF0.5
aF0.9015849145177343
aI1
aF0.008124301184724278
aF0.5
aF0.9000000135049541
aF0.5
aF0.5
aF0.5
aF0.5
aF0.5
aF0.900009189018091
aF0.5
aF0.5
aF0.5
aI0
aF0.5
aF0.5
aF0.5
aF0.5
aF0.5
aF0.5
aF0.5
aF0.5
aF0.5
aF0.5
aF0.5
aF0.5
aF0.5
aI1
aF0.5
aF0.5
aF0.5
aF0.5
aF0.5
aF0.5
aF0.5
aF0.5
aF0.5
aF0.5
aF0.5
aF0.5
aI0
aF0.5
aF0.5564291452868124
aF0.5
aF0.16446009289336816
aF0.4959283204440285
aF0.5
aF0.5
aF0.5
aF0.5
aF0.9984868906819552
aF0.9021198327233999
aF0.5
aF0.9999213425107434
aI1
aF0.9026343360422158
aF0.5
aF0.90919702143005
aF0.5
aF0.5
aF0.5
aF0.5
aF0.5
aF5.325931154750257e-07
aF0.5
aF0.5
aF0.5
aI0
aF0.20738951926635685
aF0.04911473567951348
aF0.5
aF0.0900027517034444
aF0.5
aF0.9999107281179092
aF0.5
aF0.49927276309240487
aF0.5
aF0.9916066719878021
aF0.5
aF0.9999108983780212
aF0.5
aI1
aF0.90090000990901
aF0.9999999991040499
aF0.4995454995005
aF0.5
aF0.5
aF9.90990990090997e-05
aF0.5
aF0.16314417873027098
aF0.0
aF0.5
aF0.5
aF0.5
aI0
aF0.5
aF0.5
aF0.5
aF0.5
aF0.5499909539643811
aF0.5
aF0.5
aF0.5
aF0.5
aF0.5
aF0.9999999100008163
aF0.5
aF0.999991720818966
aI1
aF0.5
aF0.5
aF0.5
aF0.5
aF0.5
aF0.5
aF0.5
aF0.5
aF0.5
aF0.5
aF0.5
aF0.5
aI0
aF0.5
aF0.5
aI0
aF0.5
aF0.5
aI0
aI0
aI0
aF0.5
aF0.5
aF0.5
aI0
aF0.5
aI1
aI0
aI0
aI0
aF0.5
aF0.5
aF0.5
aI0
aF0.5
aF0.5
aI0
aI0
aI0
aF0.5
aF0.5
aF0.5
aI0
aF0.5
aF0.025366499911901652
aI0
aI0
aI0
aF0.5
aF0.5
aF0.09000009999909908
aI0
aF0.0009005363280054097
aI1
aI0
aI0
aI0
aF0.5
aF0.5
aF0.5
aI0
aF0.5
aF0.5
aI0
aI0
aI0
aF0.5
aF0.5
aF0.5
aI0
aF0.5
aF0.5
aI0
aI0
aI0
aF0.5
aF0.5
aF0.5
aI0
aF0.5
aI1
aI0
aI0
aI0
aF0.5
aF0.5
aF0.5
aI0
aF0.5
aF0.5
aI0
aI0
aI0
aF0.5
aF0.5
aF0.9871440823088551
aF0.5
aF0.9256142377554191
aF0.9190527133101566
aF0.5
aF0.5
aF0.5
aF0.5
aF0.9913866893112502
aF0.9998367835562362
aF0.5
aF0.9999998786009373
aI1
aF0.9081171818992871
aF0.5
aF0.9736379206447333
aF0.5
aF0.5
aF0.5
aF0.5
aF0.5
aF0.0634014905900645
aF0.5
aF0.5
aF0.5
aI0
aF0.12307355428977051
aF0.001160126086920489
aF0.5
aF0.9100789361091601
aF0.5
aF0.9989110737074548
aF0.5
aF0.09909099990009995
aF0.5
aF0.004465498586056577
aF0.5
aF0.4951306030594589
aF0.5
aI1
aF0.0
aF0.009900004968828396
aF0.0
aF0.5
aF0.5
aF0.18981819099363706
aF0.5
aF0.9999990901269998
aF0.009990000000099988
aF0.5
aF0.5
aF0.5
aI0
aF0.5
aF0.5
aF0.5
aF0.5
aF0.5449671486559308
aF0.5
aF0.5
aF0.5
aF0.5
aF0.5
aF0.99991891081
aF0.5
aF0.9999999835560821
aI1
aF0.5
aF0.5
aF0.5
aF0.5
aF0.5
aF0.5
aF0.5
aF0.5
aF0.5
aF0.5
aF0.5
aF0.5
aI0
aF0.41504333517905384
aF0.44965522327291035
aF0.5
aF0.9999099168520483
aF0.5
aF0.999999999902709
aF0.5
aF0.5817705037803567
aF0.5
aF0.9917956448741937
aF0.5
aF0.909918179389062
aF0.5
aI1
aF0.009009090099990902
aF0.17200178209881178
aF0.9909000099009991
aF0.5
aF0.5
aF0.4995540950445867
aF0.5
aF0.9940510382941355
aF0.450450004950045
aF0.5
aF0.5
aF0.5
aI0
aI1
aI1
aI1
aI1
aI1
aI1
aI1
aI1
aI1
aI1
aI1
aI1
aI1
aF0.5
aI1
aI1
aI1
aI1
aI1
aI1
aI1
aI1
aI1
aI1
aI1
aI1
aI1
aF0.5
aF0.5096490554725109
aF0.5
aF0.5902760921714687
aF0.4500450004954505
aF0.5
aF0.5
aF0.5
aF0.5
aF0.9999106292878381
aF0.999909900909909
aF0.5
aF0.9999999909099901
aI1
aF1.0
aF0.5
aF1.0
aF0.5
aF0.5
aF0.5
aF0.5
aF0.5
aF0.5
aF0.5
aF0.5
aF0.5
aI0
aF0.5
aF0.5
aI0
aF0.5
aF0.9107363613689109
aI0
aI0
aI0
aF0.5
aF0.5
aF0.9900107281701901
aI0
aF0.9909009910710181
aI1
aI0
aI0
aI0
aF0.5
aF0.5
aF0.5
aI0
aF0.5
aF0.5
aI0
aI0
aI0
aF0.5
aF0.5
aF0.09982906935562315
aI0
aF0.09089279930782435
aF0.9009090900999001
aI0
aI0
aI0
aF0.5
aF0.0
aF0.0
aI0
aF0.0
aI1
aI0
aI0
aI0
aF0.5
aF0.5
aF0.5
aI0
aF0.5
aF1.0
aI0
aI0
aI0
aF0.5
aF0.5
aF0.5
aI0
aF0.5
aF0.5
aI0
aI0
aI0
aF0.5
aF0.5
aF0.5
aI0
aF0.5
aI1
aI0
aI0
aI0
aF0.5
aF0.5
aF0.5
aI0
aF0.5
aF0.5
aI0
aI0
aI0
aF0.5
aF0.5
aF0.5
aF0.5
aF0.5
aF0.5
aF0.5
aF0.5
aF0.5
aF0.5
aF0.5
aF0.5
aF0.5
aF0.5
aI1
aF0.5
aF0.5
aF0.5
aF0.5
aI0
aI0
aI0
aI0
aI0
aI0
aI0
aI0
aF0.5
aF0.5
aF0.5
aF0.5
aF0.5
aF0.09009909090999912
aF0.5
aF0.5
aF0.5
aF0.5
aF0.5
aF0.5081909012698731
aF0.5
aF0.999999821542223
aI1
aF0.5
aF0.5
aF0.5
aF0.5
aI0
aI0
aI0
aI0
aI0
aI0
aI0
aI0
aF0.5
aF0.5
aF0.5
aF0.5
aF0.5
aF0.5
aF0.5
aF0.5
aF0.5
aF0.5
aF0.5
aF0.5
aF0.5
aF0.5
aI1
aF0.5
aF0.5
aF0.5
aF0.5
aI0
aI0
aI0
aI0
aI0
aI0
aI0
aI0
aF0.5
aF0.5
aF0.5
aF0.5
aF0.5
aF0.4554041543601386
aF0.5
aF0.5
aF0.5
aF0.5
aF0.5
aF0.9009779336645528
aF0.5
aF0.9999723446364662
aI1
aF0.5
aF0.5
aF0.5
aF0.5
aI0
aI0
aI0
aI0
aI0
aI0
aI0
aI0
aF0.5
aF0.5
aF0.9040508645547574
aF0.5
aF0.8918182889296269
aF0.0
aF0.5
aF0.5
aF0.5
aF0.5
aF0.9094637614570208
aF0.454500495450455
aF0.5
aF0.999990090909099
aI1
aF1.0
aF0.5
aF0.5
aF0.5
aI0
aI0
aI0
aI0
aI0
aI0
aI0
aI0
aF0.5
aF0.5
aF0.5
aF0.5
aF0.5
aF0.5
aF0.5
aF0.5
aF0.5
aF0.5
aF0.5
aF0.5
aF0.5
aF0.5
aI1
aF0.5
aF0.5
aF0.5
aF0.5
aI0
aI0
aI0
aI0
aI0
aI0
aI0
aI0
aF0.5
aF0.5
aF0.5
aI0
aF0.5
aF0.5
aI0
aI0
aI0
aF0.5
aF0.5
aF0.5
aI0
aF0.5
aI1
aI0
aI0
aI0
aF0.5
aI0
aI0
aF0.5
aI0
aI0
aF0.5
aF0.5
aF0.5
aF0.5
aF0.5
aF0.5
aI0
aF0.5
aF0.5
aI0
aI0
aI0
aF0.5
aF0.5
aF0.5
aI0
aF0.5
aI1
aI0
aI0
aI0
aF0.5
aI0
aI0
aF0.5
aI0
aI0
aF0.5
aF0.5
aF0.5
aF0.5
aI0
aI0
aF0.5
aI0
aI0
aF0.5
aF0.5
aF0.5
aF0.5
aI0
aI0
aF0.5
aI0
aI1
aF0.5
aF0.5
aF0.5
aF0.5
aF0.5
aF0.5
aF0.5
aF0.5
aF0.5
aF0.5
aF0.5
aF0.5
aF0.5
aF0.5
aF0.21888178942154252
aF0.5
aF0.13479232704166885
aF0.1815218857649447
aF0.5
aF0.5
aF0.5
aF0.5
aF0.9915700331779261
aF0.9999270270109806
aF0.5
aF0.11610354085197439
aI1
aF0.02779309801665769
aF0.5
aF0.9990837981191547
aF0.5
aF0.5
aF0.5
aF0.5
aF0.5
aF0.009990631715188741
aF0.5
aF0.5
aF0.5
aI0
aF0.9990082230031321
aI1
aF0.5
aF0.9894407239676034
aI1
aF0.9999000197505338
aF0.5
aI1
aF0.5
aF0.9954041535061968
aI1
aF0.909986091018065
aF0.5
aF0.5
aF0.009990009090099991
aF0.9999999095494924
aI1
aF0.5
aF0.5
aI1
aF0.5
aF0.10802621618365182
aI1
aF0.5
aF0.5
aI1
aI0
aF0.5
aF0.5
aF0.5
aF0.5
aF0.5499136889610177
aF0.5
aF0.5
aF0.5
aF0.5
aF0.5
aF1.0
aF0.5
aF1.0
aI1
aF0.5
aF0.5
aF0.5
aF0.5
aF0.5
aF0.5
aF0.5
aF0.5
aF0.5
aF0.5
aF0.5
aF0.5
aI0
aF0.9276592449117016
aF0.999981217640062
aF0.5
aF0.9176249052824366
aF0.5
aF1.0
aF0.5
aF0.9991810089999422
aF0.5
aI1
aI1
aI1
aI1
aF0.5
aI1
aI1
aI1
aI1
aF0.5
aF0.5499954459541891
aF0.5
aF0.9044958146551655
aF4.5450045499549527e-10
aF0.5
aF0.5
aF0.5
aI0
aF0.9197297296142289
aI1
aF1.0
aF0.5
aI1
aF1.0
aF1.0
aI1
aF0.5
aI1
aF0.5
aI1
aI1
aF0.5
aI1
aI1
aF0.5
aI1
aF0.9108108108981205
aI1
aF0.5
aF0.9009009009990009
aI1
aF1.0
aF0.5
aI1
aI0
aF0.5
aF0.5490918855954059
aF0.5
aF0.5449968950503226
aF0.5
aF0.5
aF0.5
aF0.5
aF0.5
aI1
aI1
aI1
aI1
aF0.5
aI1
aI1
aI1
aI1
aF0.5
aF0.5
aF0.5
aF0.5
aF0.5
aF0.5
aF0.5
aF0.5
aI0
aF0.5
aF0.5
aI0
aF0.5
aF1.0
aI0
aI0
aI0
aF0.5
aF0.5
aF0.9189189108917191
aI0
aF0.09500942187419437
aI1
aI0
aI0
aI0
aF0.5
aF0.5
aF0.5
aI0
aF0.5
aF0.5
aI0
aI0
aI0
aF0.5
aF0.5
aI1
aI0
aF0.09002271953686891
aI1
aI0
aI0
aI1
aF0.5
aF0.9495905432402267
aI1
aI0
aF0.004500004954954548
aF0.5
aI0
aI0
aI1
aF0.5
aF0.5
aI1
aI0
aF0.5
aI1
aI0
aI0
aI1
aF0.5
aF0.5
aF0.5
aI0
aF0.5
aF0.5
aI0
aI0
aI0
aF0.5
aF0.5
aF0.5
aI0
aF0.5
aI1
aI0
aI0
aI0
aF0.5
aF0.5
aF0.5
aI0
aF0.5
aF0.5
aI0
aI0
aI0
aF0.5
aF0.6353745340378218
aF0.9996184024617536
aF0.5
aF0.9829647835717509
aF0.5
aF0.9811801726658014
aF0.5
aF0.998559590750555
aF0.5
aF0.9999991417159543
aF0.5
aF0.046360175461367586
aF0.5
aI1
aF0.990000990900009
aF0.9990909998629535
aF0.99999090900999
aF0.5
aF0.5
aF0.9594942442659717
aF0.5
aF0.9999148632389655
aF0.5495499954995
aF0.5
aF0.5
aF0.5
aI0
aF0.9999544097415279
aI1
aF0.5458549911998437
aF0.5
aI1
aF0.9999000909990909
aF0.4964454825269532
aI1
aF0.5
aF0.5
aI1
aF0.4995495004500454
aF0.5
aF0.5
aF0.5
aF0.49549999954954993
aI1
aF0.5
aF1.0
aI1
aF0.5
aF1.0
aI1
aF1.0
aF0.5
aI1
aI0
aF0.5
aF0.9959054316066238
aF0.5
aF0.5495138151898915
aF0.5499545499500451
aF0.5
aF0.5
aF0.5
aF0.5
aF1.0
aF1.0
aF0.5
aF1.0
aI1
aF1.0
aF0.5
aF1.0
aF0.5
aF0.5
aF0.5
aF0.5
aF0.5
aF0.5
aF0.5
aF0.5
aF0.5
aI0
aF0.5949234392360221
aF0.5
aF1.0
aF0.5
aF0.5
aF1.0
aF0.9999590504499096
aF0.9999545004999996
aF0.5
aI1
aI1
aI1
aI1
aF0.5
aI1
aI1
aI1
aI1
aF0.5487309990181031
aF0.5
aF0.5
aF0.9999545049504505
aF0.5
aF1.0
aF0.5
aF0.5
aI0
aI1
aF0.5
aI1
aI1
aF0.5
aI1
aI1
aF0.5
aI1
aF0.5
aF0.5
aF0.5
aF0.5
aF0.5
aF0.5
aF0.5
aF0.5
aF0.5
aI1
aF0.5
aI1
aI1
aF0.5
aI1
aI1
aF0.5
aI1
aF0.5499149324853695
aF0.5045454950499499
aF0.5
aF0.5045450495049955
aF0.5
aF1.0
aF0.5
aF1.0
aF0.5
aI1
aI1
aI1
aI1
aF0.5
aI1
aI1
aI1
aI1
aF0.5
aF0.5
aF0.5
aF0.5
aF0.5
aF0.5
aF0.5
aF0.5
aI0
aF0.5
aF0.999189108018837
aI0
aF0.09918189991971271
aF1.0
aI0
aI0
aI0
aF0.5
aF0.8280909170295478
aF0.99909909909991
aI0
aF0.009099090990991002
aI1
aI0
aI0
aI0
aF0.5
aF0.5
aF0.5
aI0
aF0.5
aF1.0
aI0
aI0
aI0
aF0.5
aF0.999972019788615
aI1
aI0
aF0.99900099901
aI1
aI0
aI0
aI1
aF0.5
aF0.0
aI1
aI0
aF0.5
aF0.5
aI0
aI0
aI1
aF0.5
aF0.5
aI1
aI0
aF1.0
aI1
aI0
aI0
aI1
aF0.5
aF0.5
aF0.5
aI0
aF0.5
aF1.0
aI0
aI0
aI0
aF0.5
aF0.5
aF1.0
aI0
aF1.0
aI1
aI0
aI0
aI0
aF0.5
aF0.5
aF0.5
aI0
aF0.5
aF0.5
aI0
aI0
aI0
aF0.5
aF0.5
aF0.5
aF0.5
aF0.5
aF0.1445949910044536
aF0.5
aF0.5
aF0.5
aF0.5
aF0.5
aF1.0
aF0.5
aF0.9999999415773023
aI1
aF0.5
aF0.5
aF0.5
aF0.5
aI0
aI0
aI0
aI0
aI0
aI0
aI0
aI0
aF0.5
aF0.5
aI1
aF0.5
aF0.876043372851848
aI1
aF0.5
aF0.5
aI1
aF0.5
aF0.999999999509009
aI1
aF0.5
aF0.9999999999504545
aF0.5
aF1.0
aF0.5
aI1
aF0.5
aI0
aI1
aI0
aI0
aI1
aI0
aI0
aI1
aF0.5
aF0.5
aF0.5
aF0.5
aF0.5
aF0.5
aF0.5
aF0.5
aF0.5
aF0.5
aF0.5
aF0.5
aF0.5
aF0.5
aI1
aF0.5
aF0.5
aF0.5
aF0.5
aI0
aI0
aI0
aI0
aI0
aI0
aI0
aI0
aF0.5
aF0.5
aF0.9999990994519387
aF0.5
aF0.1363630509639001
aF0.04954999504995006
aF0.5
aF0.5
aF0.5
aF0.5
aI1
aI1
aI1
aI1
aF0.5
aI1
aI1
aI1
aI1
aI0
aI0
aI0
aI0
aI0
aI0
aI0
aI0
aF0.5
aF0.9999187478282701
aI1
aF0.5
aF0.990909099909909
aI1
aF1.0
aF0.5
aI1
aF0.5
aI1
aF0.5
aI1
aI1
aF0.5
aI1
aI1
aF0.5
aI1
aI0
aI1
aI0
aI0
aI1
aI0
aI0
aI1
aF0.5
aF0.5
aF0.5
aF0.5
aF0.5
aF0.5
aF0.5
aF0.5
aF0.5
aF0.5
aI1
aI1
aI1
aI1
aF0.5
aI1
aI1
aI1
aI1
aI0
aI0
aI0
aI0
aI0
aI0
aI0
aI0
aF0.5
aF0.5
aF0.5
aI0
aF0.5
aF0.5
aI0
aI0
aI0
aF0.5
aF0.5
aF0.5
aI0
aF0.5
aI1
aI0
aI0
aI0
aF0.5
aI0
aI0
aF0.5
aI0
aI0
aF0.5
aF0.5
aF0.5
aF0.5
aF0.5
aI1
aI0
aF0.5
aI1
aI0
aI0
aI1
aF0.5
aF0.5
aI1
aI0
aF0.5
aF0.5
aI0
aI0
aI1
aF0.5
aI0
aI1
aF0.5
aI0
aI1
aF0.5
aF0.5
aI1
aF0.5
aI0
aI0
aF0.5
aI0
aI0
aF0.5
aF0.5
aF0.5
aF0.5
aI0
aI0
aF0.5
aI0
aI1
aF0.5
aF0.5
aF0.5
aF0.5
aF0.5
aF0.5
aF0.5
aF0.5
aF0.5
aF0.5
aF0.5
aF0.5
aF0.5
aI0
aI0
aI0
aI0
aI0
aI0
aI0
aI0
aI0
aI0
aI0
aI0
aI0
aI1
aI0
aI0
aI0
aI0
aI0
aI0
aI0
aI0
aI0
aI0
aI0
aI0
aF0.5
aI0
aI0
aI0
aI0
aI0
aI0
aI0
aI0
aI0
aI0
aI0
aI0
aI0
aI1
aI0
aI0
aI0
aI0
aI0
aI0
aI0
aI0
aI0
aI0
aI0
aI0
aF0.5
aI0
aI0
aF0.5
aI0
aI0
aF0.5
aI0
aI0
aF0.5
aI0
aI0
aF0.5
aI0
aI1
aF0.5
aI0
aI0
aF0.5
aI0
aI0
aF0.5
aI0
aI0
aF0.5
aI0
aI0
aF0.5
aI0
aI0
aI0
aI0
aI0
aI0
aI0
aI0
aI0
aI0
aI0
aI0
aI0
aI1
aI0
aI0
aI0
aI0
aI0
aI0
aI0
aI0
aI0
aI0
aI0
aI0
aF0.5
aI0
aI0
aI0
aI0
aI0
aI0
aI0
aI0
aI0
aI0
aI0
aI0
aI0
aI1
aI0
aI0
aI0
aI0
aI0
aI0
aI0
aI0
aI0
aI0
aI0
aI0
aF0.5
aI0
aI0
aF0.5
aI0
aI0
aF0.5
aI0
aI0
aF0.5
aI0
aI0
aF0.5
aI0
aI1
aF0.5
aI0
aI0
aF0.5
aI0
aI0
aF0.5
aI0
aI0
aF0.5
aI0
aI0
aF0.5
aI0
aI0
aF0.5
aI0
aI0
aF0.5
aF0.5
aF0.5
aF0.5
aI0
aI0
aF0.5
aI0
aI1
aF0.5
aF0.5
aF0.5
aF0.5
aF0.5
aF0.5
aF0.5
aF0.5
aF0.5
aF0.5
aF0.5
aF0.5
aF0.5
aI0
aI0
aF0.5
aI0
aI0
aF0.5
aF0.5
aF0.5
aF0.5
aI0
aI0
aF0.5
aI0
aI1
aF0.5
aF0.5
aF0.5
aF0.5
aF0.5
aF0.5
aF0.5
aF0.5
aF0.5
aF0.5
aF0.5
aF0.5
aF0.5
aI0
aI0
aF0.5
aI0
aI0
aF0.5
aF0.5
aF0.5
aF0.5
aI0
aI0
aF0.5
aI0
aI1
aF0.5
aF0.5
aF0.5
aF0.5
aF0.5
aF0.5
aF0.5
aF0.5
aF0.5
aF0.5
aF0.5
aF0.5
aF0.5
aI0
aI0
aI0
aI0
aI0
aI0
aI0
aI0
aI0
aI0
aI0
aI0
aI0
aI1
aI0
aI0
aI0
aI0
aI0
aI0
aI0
aI0
aI0
aI0
aI0
aI0
aF0.5
aI0
aI0
aI0
aI0
aI0
aI0
aI0
aI0
aI0
aI0
aI0
aI0
aI0
aI1
aI0
aI0
aI0
aI0
aI0
aI0
aI0
aI0
aI0
aI0
aI0
aI0
aF0.5
aI0
aI0
aF0.5
aI0
aI0
aF0.5
aI0
aI0
aF0.5
aI0
aI0
aF0.5
aI0
aI1
aF0.5
aI0
aI0
aF0.5
aI0
aI0
aF0.5
aI0
aI0
aF0.5
aI0
aI0
aF0.5
aI0
aI0
aI0
aI0
aI0
aI0
aI0
aI0
aI0
aI0
aI0
aI0
aI0
aI1
aI0
aI0
aI0
aI0
aI0
aI0
aI0
aI0
aI0
aI0
aI0
aI0
aF0.5
aI1
aI1
aI1
aI1
aI1
aI1
aI1
aI1
aI1
aI1
aI1
aI1
aI1
aI0
aI1
aI1
aI1
aI1
aI1
aI1
aI1
aI1
aI1
aI1
aI1
aI1
aI1
aI0
aI0
aF0.5
aI0
aI0
aF0.5
aI0
aI0
aF0.5
aI0
aI0
aF0.5
aI0
aI1
aF0.5
aI0
aI0
aF0.5
aI0
aI0
aF0.5
aI0
aI0
aF0.5
aI0
aI0
aF0.5
aI0
aI0
aF0.5
aI0
aI0
aF0.5
aF0.5
aF0.5
aF0.5
aI0
aI0
aF0.5
aI0
aI1
aF0.5
aF0.5
aF0.5
aF0.5
aF0.5
aF0.5
aF0.5
aF0.5
aF0.5
aF0.5
aF0.5
aF0.5
aF0.5
aI0
aI0
aF0.5
aI0
aI0
aF0.5
aF0.5
aF0.5
aF0.5
aI0
aI0
aF0.5
aI0
aI1
aF0.5
aF0.5
aF0.5
aF0.5
aF0.5
aF0.5
aF0.5
aF0.5
aF0.5
aF0.5
aF0.5
aF0.5
aF0.5
aI0
aI0
aF0.5
aI0
aI0
aF0.5
aF0.5
aF0.5
aF0.5
aI0
aI0
aF0.5
aI0
aI1
aF0.5
aF0.5
aF0.5
aF0.5
aF0.5
aF0.5
aF0.5
aF0.5
aF0.5
aF0.5
aF0.5
aF0.5
aF0.5
aI0
aI0
aI0
aI0
aI0
aI0
aI0
aI0
aI0
aI0
aI0
aI0
aI0
aI1
aI0
aI0
aI0
aI0
aF0.5
aF0.5
aF0.5
aF0.5
aF0.5
aF0.5
aF0.5
aF0.5
aF0.5
aI0
aI0
aI0
aI0
aI0
aI0
aI0
aI0
aI0
aI0
aI0
aI0
aI0
aI1
aI0
aI0
aI0
aI0
aF0.5
aF0.5
aF0.5
aF0.5
aF0.5
aF0.5
aF0.5
aF0.5
aF0.5
aI0
aI0
aF0.5
aI0
aI0
aF0.5
aI0
aI0
aF0.5
aI0
aI0
aF0.5
aI0
aI1
aF0.5
aI0
aI0
aF0.5
aF0.5
aF0.5
aF0.5
aF0.5
aF0.5
aF0.5
aF0.5
aF0.5
aF0.5
aI0
aI0
aI0
aI0
aI0
aI0
aI0
aI0
aI0
aI0
aI0
aI0
aI0
aI1
aI0
aI0
aI0
aI0
aF0.5
aF0.5
aF0.5
aF0.5
aF0.5
aF0.5
aF0.5
aF0.5
aF0.5
aI0
aI0
aI0
aI0
aI0
aI0
aI0
aI0
aI0
aI0
aI0
aI0
aI0
aI1
aI0
aI0
aI0
aI0
aF0.5
aF0.5
aF0.5
aF0.5
aF0.5
aF0.5
aF0.5
aF0.5
aF0.5
aI0
aI0
aF0.5
aI0
aI0
aF0.5
aI0
aI0
aF0.5
aI0
aI0
aF0.5
aI0
aI1
aF0.5
aI0
aI0
aF0.5
aF0.5
aF0.5
aF0.5
aF0.5
aF0.5
aF0.5
aF0.5
aF0.5
aF0.5
aI0
aI0
aF0.5
aI0
aI0
aF0.5
aF0.5
aF0.5
aF0.5
aI0
aI0
aF0.5
aI0
aI1
aF0.5
aF0.5
aF0.5
aF0.5
aF0.5
aF0.5
aF0.5
aF0.5
aF0.5
aF0.5
aF0.5
aF0.5
aF0.5
aI0
aI0
aF0.5
aI0
aI0
aF0.5
aF0.5
aF0.5
aF0.5
aI0
aI0
aF0.5
aI0
aI1
aF0.5
aF0.5
aF0.5
aF0.5
aF0.5
aF0.5
aF0.5
aF0.5
aF0.5
aF0.5
aF0.5
aF0.5
aF0.5
aF0.5
aF0.5
aF0.5
aF0.5
aF0.5
aF0.5
aF0.5
aF0.5
aF0.5
aF0.5
aF0.5
aF0.5
aF0.5
aI1
aF0.5
aF0.5
aF0.5
aF0.5
aF0.5
aF0.5
aF0.5
aF0.5
aF0.5
aF0.5
aF0.5
aF0.5
aF0.5
a.